(lp0
S'http://www.imdb.com/title/tt3702160/'
p1
aS'http://www.imdb.com/title/tt3281862/'
p2
aS'http://www.imdb.com/title/tt4067378/'
p3
aS'http://www.imdb.com/title/tt1309184/'
p4
aS'http://www.imdb.com/title/tt2042642/'
p5
aS'http://www.imdb.com/title/tt0860906/'
p6
aS'http://www.imdb.com/title/tt0108395/'
p7
aS'http://www.imdb.com/title/tt0113198/'
p8
aS'http://www.imdb.com/title/tt0230442/'
p9
aS'http://www.imdb.com/title/tt0377923/'
p10
aS'http://www.imdb.com/title/tt1296563/'
p11
aS'http://www.imdb.com/title/tt4108588/'
p12
aS'http://www.imdb.com/title/tt2397521/'
p13
aS'http://www.imdb.com/title/tt2140203/'
p14
aS'http://www.imdb.com/title/tt0406830/'
p15
aS'http://www.imdb.com/title/tt1147515/'
p16
aS'http://www.imdb.com/title/tt0069289/'
p17
aS'http://www.imdb.com/title/tt2397461/'
p18
aS'http://www.imdb.com/title/tt1133936/'
p19
aS'http://www.imdb.com/title/tt3136634/'
p20
aS'http://www.imdb.com/title/tt4126486/'
p21
aS'http://www.imdb.com/title/tt0295943/'
p22
aS'http://www.imdb.com/title/tt0473474/'
p23
aS'http://www.imdb.com/title/tt0038166/'
p24
aS'http://www.imdb.com/title/tt2357467/'
p25
aS'http://www.imdb.com/title/tt0097411/'
p26
aS'http://www.imdb.com/title/tt0041606/'
p27
aS'http://www.imdb.com/title/tt0053285/'
p28
aS'http://www.imdb.com/title/tt0427580/'
p29
aS'http://www.imdb.com/title/tt1345460/'
p30
aS'http://www.imdb.com/title/tt0988142/'
p31
aS'http://www.imdb.com/title/tt4632916/'
p32
aS'http://www.imdb.com/title/tt2085795/'
p33
aS'http://www.imdb.com/title/tt0388473/'
p34
aS'http://www.imdb.com/title/tt2766104/'
p35
aS'http://www.imdb.com/title/tt0083053/'
p36
aS'http://www.imdb.com/title/tt0109277/'
p37
aS'http://www.imdb.com/title/tt0264872/'
p38
aS'http://www.imdb.com/title/tt1772341/'
p39
aS'http://www.imdb.com/title/tt1043852/'
p40
aS'http://www.imdb.com/title/tt0259310/'
p41
aS'http://www.imdb.com/title/tt0287941/'
p42
aS'http://www.imdb.com/title/tt0223992/'
p43
aS'http://www.imdb.com/title/tt0140089/'
p44
aS'http://www.imdb.com/title/tt4253190/'
p45
aS'http://www.imdb.com/title/tt1148261/'
p46
aS'http://www.imdb.com/title/tt0183902/'
p47
aS'http://www.imdb.com/title/tt0159510/'
p48
aS'http://www.imdb.com/title/tt0092067/'
p49
aS'http://www.imdb.com/title/tt0386611/'
p50
aS'http://www.imdb.com/title/tt1109488/'
p51
aS'http://www.imdb.com/title/tt0387334/'
p52
aS'http://www.imdb.com/title/tt0496522/'
p53
aS'http://www.imdb.com/title/tt3588478/'
p54
aS'http://www.imdb.com/title/tt0085483/'
p55
aS'http://www.imdb.com/title/tt0389076/'
p56
aS'http://www.imdb.com/title/tt2156911/'
p57
aS'http://www.imdb.com/title/tt0208069/'
p58
aS'http://www.imdb.com/title/tt0411189/'
p59
aS'http://www.imdb.com/title/tt0130812/'
p60
aS'http://www.imdb.com/title/tt2378113/'
p61
aS'http://www.imdb.com/title/tt2075132/'
p62
aS'http://www.imdb.com/title/tt1620981/'
p63
aS'http://www.imdb.com/title/tt0090315/'
p64
aS'http://www.imdb.com/title/tt0100737/'
p65
aS'http://www.imdb.com/title/tt0103178/'
p66
aS'http://www.imdb.com/title/tt4582100/'
p67
aS'http://www.imdb.com/title/tt0090961/'
p68
aS'http://www.imdb.com/title/tt0926156/'
p69
aS'http://www.imdb.com/title/tt3503074/'
p70
aS'http://www.imdb.com/title/tt0175647/'
p71
aS'http://www.imdb.com/title/tt1703076/'
p72
aS'http://www.imdb.com/title/tt1488589/'
p73
aS'http://www.imdb.com/title/tt2164058/'
p74
aS'http://www.imdb.com/title/tt0092141/'
p75
aS'http://www.imdb.com/title/tt0250403/'
p76
aS'http://www.imdb.com/title/tt2058669/'
p77
aS'http://www.imdb.com/title/tt0158300/'
p78
aS'http://www.imdb.com/title/tt0307050/'
p79
aS'http://www.imdb.com/title/tt3916760/'
p80
aS'http://www.imdb.com/title/tt1082598/'
p81
aS'http://www.imdb.com/title/tt0325179/'
p82
aS'http://www.imdb.com/title/tt0161979/'
p83
aS'http://www.imdb.com/title/tt0202416/'
p84
aS'http://www.imdb.com/title/tt0009619/'
p85
aS'http://www.imdb.com/title/tt1828229/'
p86
aS'http://www.imdb.com/title/tt4909250/'
p87
aS'http://www.imdb.com/title/tt1798188/'
p88
aS'http://www.imdb.com/title/tt0970933/'
p89
aS'http://www.imdb.com/title/tt0814296/'
p90
aS'http://www.imdb.com/title/tt1186220/'
p91
aS'http://www.imdb.com/title/tt4253212/'
p92
aS'http://www.imdb.com/title/tt3640382/'
p93
aS'http://www.imdb.com/title/tt0437799/'
p94
aS'http://www.imdb.com/title/tt3973682/'
p95
aS'http://www.imdb.com/title/tt0385668/'
p96
aS'http://www.imdb.com/title/tt4086028/'
p97
aS'http://www.imdb.com/title/tt4733692/'
p98
aS'http://www.imdb.com/title/tt2027211/'
p99
aS'http://www.imdb.com/title/tt4937208/'
p100
aS'http://www.imdb.com/title/tt5028140/'
p101
aS'http://www.imdb.com/title/tt0460811/'
p102
aS'http://www.imdb.com/title/tt1512222/'
p103
aS'http://www.imdb.com/title/tt0820142/'
p104
aS'http://www.imdb.com/title/tt0479952/'
p105
aS'http://www.imdb.com/title/tt4439784/'
p106
aS'http://www.imdb.com/title/tt3520212/'
p107
aS'http://www.imdb.com/title/tt1880287/'
p108
aS'http://www.imdb.com/title/tt0471589/'
p109
aS'http://www.imdb.com/title/tt4128402/'
p110
aS'http://www.imdb.com/title/tt1426379/'
p111
aS'http://www.imdb.com/title/tt1051263/'
p112
aS'http://www.imdb.com/title/tt0226851/'
p113
aS'http://www.imdb.com/title/tt3805158/'
p114
aS'http://www.imdb.com/title/tt1280036/'
p115
aS'http://www.imdb.com/title/tt1352765/'
p116
aS'http://www.imdb.com/title/tt2332523/'
p117
aS'http://www.imdb.com/title/tt0419472/'
p118
aS'http://www.imdb.com/title/tt0400244/'
p119
aS'http://www.imdb.com/title/tt0196503/'
p120
aS'http://www.imdb.com/title/tt0062224/'
p121
aS'http://www.imdb.com/title/tt3604664/'
p122
aS'http://www.imdb.com/title/tt3239148/'
p123
aS'http://www.imdb.com/title/tt2850386/'
p124
aS'http://www.imdb.com/title/tt0103783/'
p125
aS'http://www.imdb.com/title/tt4651660/'
p126
aS'http://www.imdb.com/title/tt0015830/'
p127
aS'http://www.imdb.com/title/tt1891939/'
p128
aS'http://www.imdb.com/title/tt3866872/'
p129
aS'http://www.imdb.com/title/tt0208298/'
p130
aS'http://www.imdb.com/title/tt0142636/'
p131
aS'http://www.imdb.com/title/tt0305179/'
p132
aS'http://www.imdb.com/title/tt0145911/'
p133
aS'http://www.imdb.com/title/tt0146010/'
p134
aS'http://www.imdb.com/title/tt4002296/'
p135
aS'http://www.imdb.com/title/tt1764666/'
p136
aS'http://www.imdb.com/title/tt0216859/'
p137
aS'http://www.imdb.com/title/tt1190683/'
p138
aS'http://www.imdb.com/title/tt1105263/'
p139
aS'http://www.imdb.com/title/tt0406672/'
p140
aS'http://www.imdb.com/title/tt0237687/'
p141
aS'http://www.imdb.com/title/tt0312767/'
p142
aS'http://www.imdb.com/title/tt1715210/'
p143
aS'http://www.imdb.com/title/tt1550321/'
p144
aS'http://www.imdb.com/title/tt0216651/'
p145
aS'http://www.imdb.com/title/tt1911658/'
p146
aS'http://www.imdb.com/title/tt0259534/'
p147
aS'http://www.imdb.com/title/tt1703953/'
p148
aS'http://www.imdb.com/title/tt0309114/'
p149
aS'http://www.imdb.com/title/tt0316846/'
p150
aS'http://www.imdb.com/title/tt1358989/'
p151
aS'http://www.imdb.com/title/tt1857822/'
p152
aS'http://www.imdb.com/title/tt3428188/'
p153
aS'http://www.imdb.com/title/tt1515854/'
p154
aS'http://www.imdb.com/title/tt0968334/'
p155
aS'http://www.imdb.com/title/tt4991780/'
p156
aS'http://www.imdb.com/title/tt0239348/'
p157
aS'http://www.imdb.com/title/tt0283962/'
p158
aS'http://www.imdb.com/title/tt0164917/'
p159
aS'http://www.imdb.com/title/tt3037136/'
p160
aS'http://www.imdb.com/title/tt0084774/'
p161
aS'http://www.imdb.com/title/tt0145888/'
p162
aS'http://www.imdb.com/title/tt0423315/'
p163
aS'http://www.imdb.com/title/tt2820354/'
p164
aS'http://www.imdb.com/title/tt0092695/'
p165
aS'http://www.imdb.com/title/tt0259746/'
p166
aS'http://www.imdb.com/title/tt1080016/'
p167
aS'http://www.imdb.com/title/tt1997552/'
p168
aS'http://www.imdb.com/title/tt0229664/'
p169
aS'http://www.imdb.com/title/tt3324068/'
p170
aS'http://www.imdb.com/title/tt1996223/'
p171
aS'http://www.imdb.com/title/tt2320718/'
p172
aS'http://www.imdb.com/title/tt1632477/'
p173
aS'http://www.imdb.com/title/tt0088955/'
p174
aS'http://www.imdb.com/title/tt0356026/'
p175
aS'http://www.imdb.com/title/tt0446958/'
p176
aS'http://www.imdb.com/title/tt2457504/'
p177
aS'http://www.imdb.com/title/tt0184041/'
p178
aS'http://www.imdb.com/title/tt1920885/'
p179
aS'http://www.imdb.com/title/tt3401174/'
p180
aS'http://www.imdb.com/title/tt0322918/'
p181
aS'http://www.imdb.com/title/tt4877122/'
p182
aS'http://www.imdb.com/title/tt1133935/'
p183
aS'http://www.imdb.com/title/tt0233263/'
p184
aS'http://www.imdb.com/title/tt2197822/'
p185
aS'http://www.imdb.com/title/tt4126876/'
p186
aS'http://www.imdb.com/title/tt1979376/'
p187
aS'http://www.imdb.com/title/tt3462678/'
p188
aS'http://www.imdb.com/title/tt0481511/'
p189
aS'http://www.imdb.com/title/tt2240030/'
p190
aS'http://www.imdb.com/title/tt2009445/'
p191
aS'http://www.imdb.com/title/tt1859606/'
p192
aS'http://www.imdb.com/title/tt0278332/'
p193
aS'http://www.imdb.com/title/tt0973837/'
p194
aS'http://www.imdb.com/title/tt0420076/'
p195
aS'http://www.imdb.com/title/tt1466078/'
p196
aS'http://www.imdb.com/title/tt1142977/'
p197
aS'http://www.imdb.com/title/tt0347319/'
p198
aS'http://www.imdb.com/title/tt0133936/'
p199
aS'http://www.imdb.com/title/tt4306116/'
p200
aS'http://www.imdb.com/title/tt2404692/'
p201
aS'http://www.imdb.com/title/tt0145853/'
p202
aS'http://www.imdb.com/title/tt0769512/'
p203
aS'http://www.imdb.com/title/tt3148834/'
p204
aS'http://www.imdb.com/title/tt3331846/'
p205
aS'http://www.imdb.com/title/tt2946582/'
p206
aS'http://www.imdb.com/title/tt0290738/'
p207
aS'http://www.imdb.com/title/tt1090343/'
p208
aS'http://www.imdb.com/title/tt1756855/'
p209
aS'http://www.imdb.com/title/tt2442294/'
p210
aS'http://www.imdb.com/title/tt4191054/'
p211
aS'http://www.imdb.com/title/tt0218159/'
p212
aS'http://www.imdb.com/title/tt1613031/'
p213
aS'http://www.imdb.com/title/tt1621039/'
p214
aS'http://www.imdb.com/title/tt0056700/'
p215
aS'http://www.imdb.com/title/tt0146273/'
p216
aS'http://www.imdb.com/title/tt1644694/'
p217
aS'http://www.imdb.com/title/tt0190940/'
p218
aS'http://www.imdb.com/title/tt0126074/'
p219
aS'http://www.imdb.com/title/tt0763304/'
p220
aS'http://www.imdb.com/title/tt0317705/'
p221
aS'http://www.imdb.com/title/tt2371399/'
p222
aS'http://www.imdb.com/title/tt2260256/'
p223
aS'http://www.imdb.com/title/tt0461603/'
p224
aS'http://www.imdb.com/title/tt2193271/'
p225
aS'http://www.imdb.com/title/tt2287172/'
p226
aS'http://www.imdb.com/title/tt1753984/'
p227
aS'http://www.imdb.com/title/tt4472100/'
p228
aS'http://www.imdb.com/title/tt1039902/'
p229
aS'http://www.imdb.com/title/tt1876229/'
p230
aS'http://www.imdb.com/title/tt2644722/'
p231
aS'http://www.imdb.com/title/tt2476096/'
p232
aS'http://www.imdb.com/title/tt1167480/'
p233
aS'http://www.imdb.com/title/tt1238732/'
p234
aS'http://www.imdb.com/title/tt1449283/'
p235
aS'http://www.imdb.com/title/tt0882987/'
p236
aS'http://www.imdb.com/title/tt0032910/'
p237
aS'http://www.imdb.com/title/tt4080760/'
p238
aS'http://www.imdb.com/title/tt0034539/'
p239
aS'http://www.imdb.com/title/tt2535654/'
p240
aS'http://www.imdb.com/title/tt1743341/'
p241
aS'http://www.imdb.com/title/tt1907625/'
p242
aS'http://www.imdb.com/title/tt0009469/'
p243
aS'http://www.imdb.com/title/tt0393510/'
p244
aS'http://www.imdb.com/title/tt1937323/'
p245
aS'http://www.imdb.com/title/tt0041094/'
p246
aS'http://www.imdb.com/title/tt0094269/'
p247
aS'http://www.imdb.com/title/tt1856053/'
p248
aS'http://www.imdb.com/title/tt3924046/'
p249
aS'http://www.imdb.com/title/tt0311538/'
p250
aS'http://www.imdb.com/title/tt2251513/'
p251
aS'http://www.imdb.com/title/tt0126029/'
p252
aS'http://www.imdb.com/title/tt1867086/'
p253
aS'http://www.imdb.com/title/tt0263118/'
p254
aS'http://www.imdb.com/title/tt1663150/'
p255
aS'http://www.imdb.com/title/tt3816214/'
p256
aS'http://www.imdb.com/title/tt1147509/'
p257
aS'http://www.imdb.com/title/tt1043842/'
p258
aS'http://www.imdb.com/title/tt4788934/'
p259
aS'http://www.imdb.com/title/tt0037200/'
p260
aS'http://www.imdb.com/title/tt0089943/'
p261
aS'http://www.imdb.com/title/tt0215624/'
p262
aS'http://www.imdb.com/title/tt0268380/'
p263
aS'http://www.imdb.com/title/tt3505298/'
p264
aS'http://www.imdb.com/title/tt0056125/'
p265
aS'http://www.imdb.com/title/tt0399245/'
p266
aS'http://www.imdb.com/title/tt1147519/'
p267
aS'http://www.imdb.com/title/tt1753427/'
p268
aS'http://www.imdb.com/title/tt1725007/'
p269
aS'http://www.imdb.com/title/tt3336368/'
p270
aS'http://www.imdb.com/title/tt3874544/'
p271
aS'http://www.imdb.com/title/tt4818942/'
p272
aS'http://www.imdb.com/title/tt1622560/'
p273
aS'http://www.imdb.com/title/tt1397147/'
p274
aS'http://www.imdb.com/title/tt0289408/'
p275
aS'http://www.imdb.com/title/tt0100281/'
p276
aS'http://www.imdb.com/title/tt0113824/'
p277
aS'http://www.imdb.com/title/tt1857791/'
p278
aS'http://www.imdb.com/title/tt0403703/'
p279
aS'http://www.imdb.com/title/tt5053128/'
p280
aS'http://www.imdb.com/title/tt0295659/'
p281
aS'http://www.imdb.com/title/tt1125254/'
p282
aS'http://www.imdb.com/title/tt4678116/'
p283
aS'http://www.imdb.com/title/tt0372763/'
p284
aS'http://www.imdb.com/title/tt4899582/'
p285
aS'http://www.imdb.com/title/tt3565744/'
p286
aS'http://www.imdb.com/title/tt0187189/'
p287
aS'http://www.imdb.com/title/tt0222225/'
p288
aS'http://www.imdb.com/title/tt3234494/'
p289
aS'http://www.imdb.com/title/tt0138069/'
p290
aS'http://www.imdb.com/title/tt1318849/'
p291
aS'http://www.imdb.com/title/tt0095715/'
p292
aS'http://www.imdb.com/title/tt0270611/'
p293
aS'http://www.imdb.com/title/tt0039746/'
p294
aS'http://www.imdb.com/title/tt2128413/'
p295
aS'http://www.imdb.com/title/tt1171265/'
p296
aS'http://www.imdb.com/title/tt2321405/'
p297
aS'http://www.imdb.com/title/tt2346354/'
p298
aS'http://www.imdb.com/title/tt0342153/'
p299
aS'http://www.imdb.com/title/tt1368061/'
p300
aS'http://www.imdb.com/title/tt2856848/'
p301
aS'http://www.imdb.com/title/tt0147033/'
p302
aS'http://www.imdb.com/title/tt4624814/'
p303
aS'http://www.imdb.com/title/tt1147514/'
p304
aS'http://www.imdb.com/title/tt3133172/'
p305
aS'http://www.imdb.com/title/tt2058651/'
p306
aS'http://www.imdb.com/title/tt3564384/'
p307
aS'http://www.imdb.com/title/tt1316074/'
p308
aS'http://www.imdb.com/title/tt2520678/'
p309
aS'http://www.imdb.com/title/tt3210994/'
p310
aS'http://www.imdb.com/title/tt0078983/'
p311
aS'http://www.imdb.com/title/tt3864104/'
p312
aS'http://www.imdb.com/title/tt0078480/'
p313
aS'http://www.imdb.com/title/tt3741670/'
p314
aS'http://www.imdb.com/title/tt4885726/'
p315
aS'http://www.imdb.com/title/tt0306646/'
p316
aS'http://www.imdb.com/title/tt0203908/'
p317
aS'http://www.imdb.com/title/tt0172951/'
p318
aS'http://www.imdb.com/title/tt0154587/'
p319
aS'http://www.imdb.com/title/tt1636780/'
p320
aS'http://www.imdb.com/title/tt1934243/'
p321
aS'http://www.imdb.com/title/tt2343633/'
p322
aS'http://www.imdb.com/title/tt1655431/'
p323
aS'http://www.imdb.com/title/tt0100356/'
p324
aS'http://www.imdb.com/title/tt4204452/'
p325
aS'http://www.imdb.com/title/tt0272226/'
p326
aS'http://www.imdb.com/title/tt1111358/'
p327
aS'http://www.imdb.com/title/tt0067179/'
p328
aS'http://www.imdb.com/title/tt3691706/'
p329
aS'http://www.imdb.com/title/tt0090249/'
p330
aS'http://www.imdb.com/title/tt3405166/'
p331
aS'http://www.imdb.com/title/tt0355692/'
p332
aS'http://www.imdb.com/title/tt0064714/'
p333
aS'http://www.imdb.com/title/tt1411704/'
p334
aS'http://www.imdb.com/title/tt3222236/'
p335
aS'http://www.imdb.com/title/tt3654180/'
p336
aS'http://www.imdb.com/title/tt0060926/'
p337
aS'http://www.imdb.com/title/tt2391821/'
p338
aS'http://www.imdb.com/title/tt0295667/'
p339
aS'http://www.imdb.com/title/tt3858372/'
p340
aS'http://www.imdb.com/title/tt0094954/'
p341
aS'http://www.imdb.com/title/tt2948372/'
p342
aS'http://www.imdb.com/title/tt0122735/'
p343
aS'http://www.imdb.com/title/tt0130623/'
p344
aS'http://www.imdb.com/title/tt1183707/'
p345
aS'http://www.imdb.com/title/tt0415481/'
p346
aS'http://www.imdb.com/title/tt1298836/'
p347
aS'http://www.imdb.com/title/tt0356726/'
p348
aS'http://www.imdb.com/title/tt0085542/'
p349
aS'http://www.imdb.com/title/tt4316022/'
p350
aS'http://www.imdb.com/title/tt0301082/'
p351
aS'http://www.imdb.com/title/tt0375568/'
p352
aS'http://www.imdb.com/title/tt2783020/'
p353
aS'http://www.imdb.com/title/tt1231288/'
p354
aS'http://www.imdb.com/title/tt1453405/'
p355
aS'http://www.imdb.com/title/tt5004778/'
p356
aS'http://www.imdb.com/title/tt0107692/'
p357
aS'http://www.imdb.com/title/tt3277512/'
p358
aS'http://www.imdb.com/title/tt3438514/'
p359
aS'http://www.imdb.com/title/tt0472415/'
p360
aS'http://www.imdb.com/title/tt0344350/'
p361
aS'http://www.imdb.com/title/tt0169898/'
p362
aS'http://www.imdb.com/title/tt0159387/'
p363
aS'http://www.imdb.com/title/tt1587216/'
p364
aS'http://www.imdb.com/title/tt1303748/'
p365
aS'http://www.imdb.com/title/tt1726846/'
p366
aS'http://www.imdb.com/title/tt0095327/'
p367
aS'http://www.imdb.com/title/tt2365574/'
p368
aS'http://www.imdb.com/title/tt0107745/'
p369
aS'http://www.imdb.com/title/tt1734178/'
p370
aS'http://www.imdb.com/title/tt0104740/'
p371
aS'http://www.imdb.com/title/tt1532410/'
p372
aS'http://www.imdb.com/title/tt3422078/'
p373
aS'http://www.imdb.com/title/tt1260507/'
p374
aS'http://www.imdb.com/title/tt0145891/'
p375
aS'http://www.imdb.com/title/tt4171600/'
p376
aS'http://www.imdb.com/title/tt0193253/'
p377
aS'http://www.imdb.com/title/tt1740147/'
p378
aS'http://www.imdb.com/title/tt1206585/'
p379
aS'http://www.imdb.com/title/tt2248068/'
p380
aS'http://www.imdb.com/title/tt1840372/'
p381
aS'http://www.imdb.com/title/tt0369308/'
p382
aS'http://www.imdb.com/title/tt1651332/'
p383
aS'http://www.imdb.com/title/tt2401878/'
p384
aS'http://www.imdb.com/title/tt3468304/'
p385
aS'http://www.imdb.com/title/tt0015532/'
p386
aS'http://www.imdb.com/title/tt0245655/'
p387
aS'http://www.imdb.com/title/tt1691454/'
p388
aS'http://www.imdb.com/title/tt0355325/'
p389
aS'http://www.imdb.com/title/tt0114689/'
p390
aS'http://www.imdb.com/title/tt0240318/'
p391
aS'http://www.imdb.com/title/tt2229387/'
p392
aS'http://www.imdb.com/title/tt4794170/'
p393
aS'http://www.imdb.com/title/tt4529784/'
p394
aS'http://www.imdb.com/title/tt1740684/'
p395
aS'http://www.imdb.com/title/tt0238596/'
p396
aS'http://www.imdb.com/title/tt1620449/'
p397
aS'http://www.imdb.com/title/tt2750736/'
p398
aS'http://www.imdb.com/title/tt0792992/'
p399
aS'http://www.imdb.com/title/tt0119471/'
p400
aS'http://www.imdb.com/title/tt0396042/'
p401
aS'http://www.imdb.com/title/tt0089984/'
p402
aS'http://www.imdb.com/title/tt0829134/'
p403
aS'http://www.imdb.com/title/tt3811918/'
p404
aS'http://www.imdb.com/title/tt0142241/'
p405
aS'http://www.imdb.com/title/tt0295711/'
p406
aS'http://www.imdb.com/title/tt0196502/'
p407
aS'http://www.imdb.com/title/tt1985966/'
p408
aS'http://www.imdb.com/title/tt0083951/'
p409
aS'http://www.imdb.com/title/tt2768704/'
p410
aS'http://www.imdb.com/title/tt3852404/'
p411
aS'http://www.imdb.com/title/tt0160558/'
p412
aS'http://www.imdb.com/title/tt0815890/'
p413
aS'http://www.imdb.com/title/tt0875609/'
p414
aS'http://www.imdb.com/title/tt2435400/'
p415
aS'http://www.imdb.com/title/tt0832449/'
p416
aS'http://www.imdb.com/title/tt0145943/'
p417
aS'http://www.imdb.com/title/tt4982156/'
p418
aS'http://www.imdb.com/title/tt0377008/'
p419
aS'http://www.imdb.com/title/tt0291343/'
p420
aS'http://www.imdb.com/title/tt0781012/'
p421
aS'http://www.imdb.com/title/tt0493226/'
p422
aS'http://www.imdb.com/title/tt0062616/'
p423
aS'http://www.imdb.com/title/tt0820129/'
p424
aS'http://www.imdb.com/title/tt1432168/'
p425
aS'http://www.imdb.com/title/tt1474276/'
p426
aS'http://www.imdb.com/title/tt1245891/'
p427
aS'http://www.imdb.com/title/tt2190193/'
p428
aS'http://www.imdb.com/title/tt0915463/'
p429
aS'http://www.imdb.com/title/tt2973542/'
p430
aS'http://www.imdb.com/title/tt0211653/'
p431
aS'http://www.imdb.com/title/tt0327306/'
p432
aS'http://www.imdb.com/title/tt0286468/'
p433
aS'http://www.imdb.com/title/tt3394878/'
p434
aS'http://www.imdb.com/title/tt1343039/'
p435
aS'http://www.imdb.com/title/tt0069034/'
p436
aS'http://www.imdb.com/title/tt0176889/'
p437
aS'http://www.imdb.com/title/tt1208658/'
p438
aS'http://www.imdb.com/title/tt4664926/'
p439
aS'http://www.imdb.com/title/tt4042020/'
p440
aS'http://www.imdb.com/title/tt2056785/'
p441
aS'http://www.imdb.com/title/tt1220201/'
p442
aS'http://www.imdb.com/title/tt1764625/'
p443
aS'http://www.imdb.com/title/tt3789946/'
p444
aS'http://www.imdb.com/title/tt4737774/'
p445
aS'http://www.imdb.com/title/tt0486728/'
p446
aS'http://www.imdb.com/title/tt0043274/'
p447
aS'http://www.imdb.com/title/tt0202966/'
p448
aS'http://www.imdb.com/title/tt4663760/'
p449
aS'http://www.imdb.com/title/tt3454108/'
p450
aS'http://www.imdb.com/title/tt2818724/'
p451
aS'http://www.imdb.com/title/tt3265080/'
p452
aS'http://www.imdb.com/title/tt0121431/'
p453
aS'http://www.imdb.com/title/tt0792986/'
p454
aS'http://www.imdb.com/title/tt0295409/'
p455
aS'http://www.imdb.com/title/tt0458076/'
p456
aS'http://www.imdb.com/title/tt2238140/'
p457
aS'http://www.imdb.com/title/tt0097814/'
p458
aS'http://www.imdb.com/title/tt0079258/'
p459
aS'http://www.imdb.com/title/tt2294629/'
p460
aS'http://www.imdb.com/title/tt2431934/'
p461
aS'http://www.imdb.com/title/tt4666512/'
p462
aS'http://www.imdb.com/title/tt2506270/'
p463
aS'http://www.imdb.com/title/tt1446192/'
p464
aS'http://www.imdb.com/title/tt1018764/'
p465
aS'http://www.imdb.com/title/tt0090760/'
p466
aS'http://www.imdb.com/title/tt0115968/'
p467
aS'http://www.imdb.com/title/tt1288461/'
p468
aS'http://www.imdb.com/title/tt1686680/'
p469
aS'http://www.imdb.com/title/tt4838316/'
p470
aS'http://www.imdb.com/title/tt3700456/'
p471
aS'http://www.imdb.com/title/tt0295608/'
p472
aS'http://www.imdb.com/title/tt0086964/'
p473
aS'http://www.imdb.com/title/tt0040013/'
p474
aS'http://www.imdb.com/title/tt0218169/'
p475
aS'http://www.imdb.com/title/tt1403983/'
p476
aS'http://www.imdb.com/title/tt0145658/'
p477
aS'http://www.imdb.com/title/tt0307453/'
p478
aS'http://www.imdb.com/title/tt1133559/'
p479
aS'http://www.imdb.com/title/tt0156279/'
p480
aS'http://www.imdb.com/title/tt0907678/'
p481
aS'http://www.imdb.com/title/tt4333478/'
p482
aS'http://www.imdb.com/title/tt3341598/'
p483
aS'http://www.imdb.com/title/tt0762125/'
p484
aS'http://www.imdb.com/title/tt0202706/'
p485
aS'http://www.imdb.com/title/tt3859712/'
p486
aS'http://www.imdb.com/title/tt1422651/'
p487
aS'http://www.imdb.com/title/tt1832471/'
p488
aS'http://www.imdb.com/title/tt4691340/'
p489
aS'http://www.imdb.com/title/tt0237622/'
p490
aS'http://www.imdb.com/title/tt1754150/'
p491
aS'http://www.imdb.com/title/tt0830861/'
p492
aS'http://www.imdb.com/title/tt4439950/'
p493
aS'http://www.imdb.com/title/tt1986206/'
p494
aS'http://www.imdb.com/title/tt3194482/'
p495
aS'http://www.imdb.com/title/tt3747852/'
p496
aS'http://www.imdb.com/title/tt3921852/'
p497
aS'http://www.imdb.com/title/tt0125058/'
p498
aS'http://www.imdb.com/title/tt1754650/'
p499
aS'http://www.imdb.com/title/tt0217484/'
p500
aS'http://www.imdb.com/title/tt0997248/'
p501
aS'http://www.imdb.com/title/tt1596342/'
p502
aS'http://www.imdb.com/title/tt0270598/'
p503
aS'http://www.imdb.com/title/tt0096438/'
p504
aS'http://www.imdb.com/title/tt0311439/'
p505
aS'http://www.imdb.com/title/tt4383208/'
p506
aS'http://www.imdb.com/title/tt2428144/'
p507
aS'http://www.imdb.com/title/tt0243017/'
p508
aS'http://www.imdb.com/title/tt1304591/'
p509
aS'http://www.imdb.com/title/tt1931569/'
p510
aS'http://www.imdb.com/title/tt4272866/'
p511
aS'http://www.imdb.com/title/tt0229834/'
p512
aS'http://www.imdb.com/title/tt0190641/'
p513
aS'http://www.imdb.com/title/tt0332410/'
p514
aS'http://www.imdb.com/title/tt0217590/'
p515
aS'http://www.imdb.com/title/tt0146361/'
p516
aS'http://www.imdb.com/title/tt1147507/'
p517
aS'http://www.imdb.com/title/tt0252057/'
p518
aS'http://www.imdb.com/title/tt2119558/'
p519
aS'http://www.imdb.com/title/tt4109284/'
p520
aS'http://www.imdb.com/title/tt4590700/'
p521
aS'http://www.imdb.com/title/tt1759743/'
p522
aS'http://www.imdb.com/title/tt3646946/'
p523
aS'http://www.imdb.com/title/tt1640718/'
p524
aS'http://www.imdb.com/title/tt0072882/'
p525
aS'http://www.imdb.com/title/tt0220462/'
p526
aS'http://www.imdb.com/title/tt0952640/'
p527
aS'http://www.imdb.com/title/tt0365659/'
p528
aS'http://www.imdb.com/title/tt0219380/'
p529
aS'http://www.imdb.com/title/tt1976589/'
p530
aS'http://www.imdb.com/title/tt0117937/'
p531
aS'http://www.imdb.com/title/tt0274348/'
p532
aS'http://www.imdb.com/title/tt1033485/'
p533
aS'http://www.imdb.com/title/tt2374144/'
p534
aS'http://www.imdb.com/title/tt1618450/'
p535
aS'http://www.imdb.com/title/tt0065021/'
p536
aS'http://www.imdb.com/title/tt0347317/'
p537
aS'http://www.imdb.com/title/tt4155534/'
p538
aS'http://www.imdb.com/title/tt1155650/'
p539
aS'http://www.imdb.com/title/tt1278099/'
p540
aS'http://www.imdb.com/title/tt4097336/'
p541
aS'http://www.imdb.com/title/tt0156887/'
p542
aS'http://www.imdb.com/title/tt4613758/'
p543
aS'http://www.imdb.com/title/tt4837182/'
p544
aS'http://www.imdb.com/title/tt4733578/'
p545
aS'http://www.imdb.com/title/tt2033956/'
p546
aS'http://www.imdb.com/title/tt4042820/'
p547
aS'http://www.imdb.com/title/tt1682222/'
p548
aS'http://www.imdb.com/title/tt4318716/'
p549
aS'http://www.imdb.com/title/tt1490539/'
p550
aS'http://www.imdb.com/title/tt4057916/'
p551
aS'http://www.imdb.com/title/tt1615025/'
p552
aS'http://www.imdb.com/title/tt1010436/'
p553
aS'http://www.imdb.com/title/tt1876517/'
p554
aS'http://www.imdb.com/title/tt4622576/'
p555
aS'http://www.imdb.com/title/tt0291559/'
p556
aS'http://www.imdb.com/title/tt0162327/'
p557
aS'http://www.imdb.com/title/tt4278346/'
p558
aS'http://www.imdb.com/title/tt0077673/'
p559
aS'http://www.imdb.com/title/tt0036848/'
p560
aS'http://www.imdb.com/title/tt1833743/'
p561
aS'http://www.imdb.com/title/tt0171357/'
p562
aS'http://www.imdb.com/title/tt3513498/'
p563
aS'http://www.imdb.com/title/tt0396094/'
p564
aS'http://www.imdb.com/title/tt2987316/'
p565
aS'http://www.imdb.com/title/tt3606504/'
p566
aS'http://www.imdb.com/title/tt0434147/'
p567
aS'http://www.imdb.com/title/tt1073223/'
p568
aS'http://www.imdb.com/title/tt0202536/'
p569
aS'http://www.imdb.com/title/tt0412879/'
p570
aS'http://www.imdb.com/title/tt1821608/'
p571
aS'http://www.imdb.com/title/tt3971764/'
p572
aS'http://www.imdb.com/title/tt0307237/'
p573
aS'http://www.imdb.com/title/tt1734113/'
p574
aS'http://www.imdb.com/title/tt4539114/'
p575
aS'http://www.imdb.com/title/tt1071809/'
p576
aS'http://www.imdb.com/title/tt1754767/'
p577
aS'http://www.imdb.com/title/tt0044414/'
p578
aS'http://www.imdb.com/title/tt0295152/'
p579
aS'http://www.imdb.com/title/tt2355921/'
p580
aS'http://www.imdb.com/title/tt2257994/'
p581
aS'http://www.imdb.com/title/tt1844206/'
p582
aS'http://www.imdb.com/title/tt0381348/'
p583
aS'http://www.imdb.com/title/tt0923985/'
p584
aS'http://www.imdb.com/title/tt4181270/'
p585
aS'http://www.imdb.com/title/tt1930432/'
p586
aS'http://www.imdb.com/title/tt1343089/'
p587
aS'http://www.imdb.com/title/tt0415052/'
p588
aS'http://www.imdb.com/title/tt3007238/'
p589
aS'http://www.imdb.com/title/tt3777398/'
p590
aS'http://www.imdb.com/title/tt4265532/'
p591
aS'http://www.imdb.com/title/tt4269194/'
p592
aS'http://www.imdb.com/title/tt0824696/'
p593
aS'http://www.imdb.com/title/tt0316699/'
p594
aS'http://www.imdb.com/title/tt4289332/'
p595
aS'http://www.imdb.com/title/tt3102994/'
p596
aS'http://www.imdb.com/title/tt4920290/'
p597
aS'http://www.imdb.com/title/tt0120587/'
p598
aS'http://www.imdb.com/title/tt0129734/'
p599
aS'http://www.imdb.com/title/tt2575990/'
p600
aS'http://www.imdb.com/title/tt1671576/'
p601
aS'http://www.imdb.com/title/tt1391648/'
p602
aS'http://www.imdb.com/title/tt1711505/'
p603
aS'http://www.imdb.com/title/tt1458549/'
p604
aS'http://www.imdb.com/title/tt1147513/'
p605
aS'http://www.imdb.com/title/tt0120794/'
p606
aS'http://www.imdb.com/title/tt0234337/'
p607
aS'http://www.imdb.com/title/tt1330053/'
p608
aS'http://www.imdb.com/title/tt0453556/'
p609
aS'http://www.imdb.com/title/tt0352988/'
p610
aS'http://www.imdb.com/title/tt0294590/'
p611
aS'http://www.imdb.com/title/tt1754233/'
p612
aS'http://www.imdb.com/title/tt3897760/'
p613
aS'http://www.imdb.com/title/tt0131636/'
p614
aS'http://www.imdb.com/title/tt0114425/'
p615
aS'http://www.imdb.com/title/tt1757767/'
p616
aS'http://www.imdb.com/title/tt1997607/'
p617
aS'http://www.imdb.com/title/tt2423504/'
p618
aS'http://www.imdb.com/title/tt0316540/'
p619
aS'http://www.imdb.com/title/tt0095776/'
p620
aS'http://www.imdb.com/title/tt0807703/'
p621
aS'http://www.imdb.com/title/tt1468843/'
p622
aS'http://www.imdb.com/title/tt3377744/'
p623
aS'http://www.imdb.com/title/tt0371962/'
p624
aS'http://www.imdb.com/title/tt0206013/'
p625
aS'http://www.imdb.com/title/tt1951234/'
p626
aS'http://www.imdb.com/title/tt3329422/'
p627
aS'http://www.imdb.com/title/tt0287351/'
p628
aS'http://www.imdb.com/title/tt4633694/'
p629
aS'http://www.imdb.com/title/tt4123100/'
p630
aS'http://www.imdb.com/title/tt0041401/'
p631
aS'http://www.imdb.com/title/tt0109057/'
p632
aS'http://www.imdb.com/title/tt2833788/'
p633
aS'http://www.imdb.com/title/tt2608516/'
p634
aS'http://www.imdb.com/title/tt0046300/'
p635
aS'http://www.imdb.com/title/tt0218418/'
p636
aS'http://www.imdb.com/title/tt1842422/'
p637
aS'http://www.imdb.com/title/tt0053882/'
p638
aS'http://www.imdb.com/title/tt1664684/'
p639
aS'http://www.imdb.com/title/tt4839348/'
p640
aS'http://www.imdb.com/title/tt1858441/'
p641
aS'http://www.imdb.com/title/tt1164545/'
p642
aS'http://www.imdb.com/title/tt3466682/'
p643
aS'http://www.imdb.com/title/tt0299172/'
p644
aS'http://www.imdb.com/title/tt0398872/'
p645
aS'http://www.imdb.com/title/tt2383480/'
p646
aS'http://www.imdb.com/title/tt0250950/'
p647
aS'http://www.imdb.com/title/tt4691348/'
p648
aS'http://www.imdb.com/title/tt0169626/'
p649
aS'http://www.imdb.com/title/tt0301083/'
p650
aS'http://www.imdb.com/title/tt1408117/'
p651
aS'http://www.imdb.com/title/tt0087202/'
p652
aS'http://www.imdb.com/title/tt0161981/'
p653
aS'http://www.imdb.com/title/tt0498465/'
p654
aS'http://www.imdb.com/title/tt1356933/'
p655
aS'http://www.imdb.com/title/tt3413018/'
p656
aS'http://www.imdb.com/title/tt0353242/'
p657
aS'http://www.imdb.com/title/tt2234345/'
p658
aS'http://www.imdb.com/title/tt0480586/'
p659
aS'http://www.imdb.com/title/tt4942216/'
p660
aS'http://www.imdb.com/title/tt3712588/'
p661
aS'http://www.imdb.com/title/tt2572208/'
p662
aS'http://www.imdb.com/title/tt1192628/'
p663
aS'http://www.imdb.com/title/tt1956456/'
p664
aS'http://www.imdb.com/title/tt0120623/'
p665
aS'http://www.imdb.com/title/tt1305591/'
p666
aS'http://www.imdb.com/title/tt2798620/'
p667
aS'http://www.imdb.com/title/tt3967976/'
p668
aS'http://www.imdb.com/title/tt2837694/'
p669
aS'http://www.imdb.com/title/tt1001526/'
p670
aS'http://www.imdb.com/title/tt1058781/'
p671
aS'http://www.imdb.com/title/tt0219382/'
p672
aS'http://www.imdb.com/title/tt0435635/'
p673
aS'http://www.imdb.com/title/tt0819780/'
p674
aS'http://www.imdb.com/title/tt4940436/'
p675
aS'http://www.imdb.com/title/tt0335861/'
p676
aS'http://www.imdb.com/title/tt1601178/'
p677
aS'http://www.imdb.com/title/tt4157940/'
p678
aS'http://www.imdb.com/title/tt0885415/'
p679
aS'http://www.imdb.com/title/tt1385876/'
p680
aS'http://www.imdb.com/title/tt4001678/'
p681
aS'http://www.imdb.com/title/tt0314063/'
p682
aS'http://www.imdb.com/title/tt1663667/'
p683
aS'http://www.imdb.com/title/tt0430293/'
p684
aS'http://www.imdb.com/title/tt0272101/'
p685
aS'http://www.imdb.com/title/tt4940416/'
p686
aS'http://www.imdb.com/title/tt0270468/'
p687
aS'http://www.imdb.com/title/tt0269788/'
p688
aS'http://www.imdb.com/title/tt0400771/'
p689
aS'http://www.imdb.com/title/tt4785642/'
p690
aS'http://www.imdb.com/title/tt4105584/'
p691
aS'http://www.imdb.com/title/tt0374262/'
p692
aS'http://www.imdb.com/title/tt1959437/'
p693
aS'http://www.imdb.com/title/tt4883574/'
p694
aS'http://www.imdb.com/title/tt0214867/'
p695
aS'http://www.imdb.com/title/tt0033399/'
p696
aS'http://www.imdb.com/title/tt1865354/'
p697
aS'http://www.imdb.com/title/tt1538477/'
p698
aS'http://www.imdb.com/title/tt0025137/'
p699
aS'http://www.imdb.com/title/tt0496595/'
p700
aS'http://www.imdb.com/title/tt0239494/'
p701
aS'http://www.imdb.com/title/tt3158482/'
p702
aS'http://www.imdb.com/title/tt0166090/'
p703
aS'http://www.imdb.com/title/tt5017974/'
p704
aS'http://www.imdb.com/title/tt0202095/'
p705
aS'http://www.imdb.com/title/tt2555514/'
p706
aS'http://www.imdb.com/title/tt1086280/'
p707
aS'http://www.imdb.com/title/tt0214468/'
p708
aS'http://www.imdb.com/title/tt0142240/'
p709
aS'http://www.imdb.com/title/tt4464516/'
p710
aS'http://www.imdb.com/title/tt1634003/'
p711
aS'http://www.imdb.com/title/tt3969866/'
p712
aS'http://www.imdb.com/title/tt4225410/'
p713
aS'http://www.imdb.com/title/tt3407994/'
p714
aS'http://www.imdb.com/title/tt0295583/'
p715
aS'http://www.imdb.com/title/tt0389077/'
p716
aS'http://www.imdb.com/title/tt3855406/'
p717
aS'http://www.imdb.com/title/tt3562846/'
p718
aS'http://www.imdb.com/title/tt0402438/'
p719
aS'http://www.imdb.com/title/tt4131800/'
p720
aS'http://www.imdb.com/title/tt2967286/'
p721
aS'http://www.imdb.com/title/tt0081648/'
p722
aS'http://www.imdb.com/title/tt3666024/'
p723
aS'http://www.imdb.com/title/tt1937337/'
p724
aS'http://www.imdb.com/title/tt0291959/'
p725
aS'http://www.imdb.com/title/tt1647467/'
p726
aS'http://www.imdb.com/title/tt0851578/'
p727
aS'http://www.imdb.com/title/tt1600529/'
p728
aS'http://www.imdb.com/title/tt1588287/'
p729
aS'http://www.imdb.com/title/tt0053261/'
p730
aS'http://www.imdb.com/title/tt0204309/'
p731
aS'http://www.imdb.com/title/tt0076618/'
p732
aS'http://www.imdb.com/title/tt0037202/'
p733
aS'http://www.imdb.com/title/tt2487126/'
p734
aS'http://www.imdb.com/title/tt0091794/'
p735
aS'http://www.imdb.com/title/tt1401204/'
p736
aS'http://www.imdb.com/title/tt0169858/'
p737
aS'http://www.imdb.com/title/tt3856638/'
p738
aS'http://www.imdb.com/title/tt0258438/'
p739
aS'http://www.imdb.com/title/tt3508188/'
p740
aS'http://www.imdb.com/title/tt4544278/'
p741
aS'http://www.imdb.com/title/tt0218798/'
p742
aS'http://www.imdb.com/title/tt3293426/'
p743
aS'http://www.imdb.com/title/tt1525803/'
p744
aS'http://www.imdb.com/title/tt1268853/'
p745
aS'http://www.imdb.com/title/tt0230548/'
p746
aS'http://www.imdb.com/title/tt0769760/'
p747
aS'http://www.imdb.com/title/tt3606756/'
p748
aS'http://www.imdb.com/title/tt1560489/'
p749
aS'http://www.imdb.com/title/tt1718791/'
p750
aS'http://www.imdb.com/title/tt0145973/'
p751
aS'http://www.imdb.com/title/tt0196678/'
p752
aS'http://www.imdb.com/title/tt4130788/'
p753
aS'http://www.imdb.com/title/tt0243558/'
p754
aS'http://www.imdb.com/title/tt0061885/'
p755
aS'http://www.imdb.com/title/tt3969864/'
p756
aS'http://www.imdb.com/title/tt1086797/'
p757
aS'http://www.imdb.com/title/tt0144681/'
p758
aS'http://www.imdb.com/title/tt0104401/'
p759
aS'http://www.imdb.com/title/tt2967094/'
p760
aS'http://www.imdb.com/title/tt1667889/'
p761
aS'http://www.imdb.com/title/tt0254957/'
p762
aS'http://www.imdb.com/title/tt0150366/'
p763
aS'http://www.imdb.com/title/tt1479690/'
p764
aS'http://www.imdb.com/title/tt2403867/'
p765
aS'http://www.imdb.com/title/tt2078523/'
p766
aS'http://www.imdb.com/title/tt1946347/'
p767
aS'http://www.imdb.com/title/tt0094205/'
p768
aS'http://www.imdb.com/title/tt1400386/'
p769
aS'http://www.imdb.com/title/tt2089672/'
p770
aS'http://www.imdb.com/title/tt0363277/'
p771
aS'http://www.imdb.com/title/tt3555204/'
p772
aS'http://www.imdb.com/title/tt3656380/'
p773
aS'http://www.imdb.com/title/tt0056281/'
p774
aS'http://www.imdb.com/title/tt3471272/'
p775
aS'http://www.imdb.com/title/tt4454336/'
p776
aS'http://www.imdb.com/title/tt2375379/'
p777
aS'http://www.imdb.com/title/tt0096742/'
p778
aS'http://www.imdb.com/title/tt1337611/'
p779
aS'http://www.imdb.com/title/tt1482459/'
p780
aS'http://www.imdb.com/title/tt1807978/'
p781
aS'http://www.imdb.com/title/tt1435990/'
p782
aS'http://www.imdb.com/title/tt4457378/'
p783
aS'http://www.imdb.com/title/tt2330832/'
p784
aS'http://www.imdb.com/title/tt3608838/'
p785
aS'http://www.imdb.com/title/tt0270933/'
p786
aS'http://www.imdb.com/title/tt3774130/'
p787
aS'http://www.imdb.com/title/tt3981120/'
p788
aS'http://www.imdb.com/title/tt0447854/'
p789
aS'http://www.imdb.com/title/tt0119450/'
p790
aS'http://www.imdb.com/title/tt0294677/'
p791
aS'http://www.imdb.com/title/tt0202239/'
p792
aS'http://www.imdb.com/title/tt0269112/'
p793
aS'http://www.imdb.com/title/tt4681974/'
p794
aS'http://www.imdb.com/title/tt2599928/'
p795
aS'http://www.imdb.com/title/tt0208870/'
p796
aS'http://www.imdb.com/title/tt0142233/'
p797
aS'http://www.imdb.com/title/tt4427230/'
p798
aS'http://www.imdb.com/title/tt0314041/'
p799
aS'http://www.imdb.com/title/tt0151590/'
p800
aS'http://www.imdb.com/title/tt1531066/'
p801
aS'http://www.imdb.com/title/tt1379670/'
p802
aS'http://www.imdb.com/title/tt1201992/'
p803
aS'http://www.imdb.com/title/tt4449798/'
p804
aS'http://www.imdb.com/title/tt0830822/'
p805
aS'http://www.imdb.com/title/tt0473271/'
p806
aS'http://www.imdb.com/title/tt0810964/'
p807
aS'http://www.imdb.com/title/tt2361846/'
p808
aS'http://www.imdb.com/title/tt1147517/'
p809
aS'http://www.imdb.com/title/tt1537481/'
p810
aS'http://www.imdb.com/title/tt1587414/'
p811
aS'http://www.imdb.com/title/tt4583796/'
p812
aS'http://www.imdb.com/title/tt0197633/'
p813
aS'http://www.imdb.com/title/tt0105427/'
p814
aS'http://www.imdb.com/title/tt0117876/'
p815
aS'http://www.imdb.com/title/tt1826959/'
p816
aS'http://www.imdb.com/title/tt0296274/'
p817
aS'http://www.imdb.com/title/tt2794560/'
p818
aS'http://www.imdb.com/title/tt0338018/'
p819
aS'http://www.imdb.com/title/tt1552010/'
p820
aS'http://www.imdb.com/title/tt0127470/'
p821
aS'http://www.imdb.com/title/tt0052067/'
p822
aS'http://www.imdb.com/title/tt0093743/'
p823
aS'http://www.imdb.com/title/tt0479008/'
p824
aS'http://www.imdb.com/title/tt2631012/'
p825
aS'http://www.imdb.com/title/tt0146275/'
p826
aS'http://www.imdb.com/title/tt3859350/'
p827
aS'http://www.imdb.com/title/tt3661394/'
p828
aS'http://www.imdb.com/title/tt0107382/'
p829
aS'http://www.imdb.com/title/tt0122227/'
p830
aS'http://www.imdb.com/title/tt1821641/'
p831
aS'http://www.imdb.com/title/tt0386127/'
p832
aS'http://www.imdb.com/title/tt1711533/'
p833
aS'http://www.imdb.com/title/tt1957952/'
p834
aS'http://www.imdb.com/title/tt0104254/'
p835
aS'http://www.imdb.com/title/tt2193273/'
p836
aS'http://www.imdb.com/title/tt2073520/'
p837
aS'http://www.imdb.com/title/tt0498493/'
p838
aS'http://www.imdb.com/title/tt1519469/'
p839
aS'http://www.imdb.com/title/tt5014378/'
p840
aS'http://www.imdb.com/title/tt0084649/'
p841
aS'http://www.imdb.com/title/tt0065421/'
p842
aS'http://www.imdb.com/title/tt1230522/'
p843
aS'http://www.imdb.com/title/tt2180443/'
p844
aS'http://www.imdb.com/title/tt1646971/'
p845
aS'http://www.imdb.com/title/tt0407924/'
p846
aS'http://www.imdb.com/title/tt2403439/'
p847
aS'http://www.imdb.com/title/tt0800096/'
p848
aS'http://www.imdb.com/title/tt0043410/'
p849
aS'http://www.imdb.com/title/tt3685006/'
p850
aS'http://www.imdb.com/title/tt1754656/'
p851
aS'http://www.imdb.com/title/tt2388212/'
p852
aS'http://www.imdb.com/title/tt1384961/'
p853
aS'http://www.imdb.com/title/tt1039651/'
p854
aS'http://www.imdb.com/title/tt0338176/'
p855
aS'http://www.imdb.com/title/tt0298109/'
p856
aS'http://www.imdb.com/title/tt0442933/'
p857
aS'http://www.imdb.com/title/tt1984279/'
p858
aS'http://www.imdb.com/title/tt4948104/'
p859
aS'http://www.imdb.com/title/tt4384804/'
p860
aS'http://www.imdb.com/title/tt0079820/'
p861
aS'http://www.imdb.com/title/tt1999166/'
p862
aS'http://www.imdb.com/title/tt2761510/'
p863
aS'http://www.imdb.com/title/tt0765465/'
p864
aS'http://www.imdb.com/title/tt1988674/'
p865
aS'http://www.imdb.com/title/tt0478450/'
p866
aS'http://www.imdb.com/title/tt0346914/'
p867
aS'http://www.imdb.com/title/tt0113799/'
p868
aS'http://www.imdb.com/title/tt1324057/'
p869
aS'http://www.imdb.com/title/tt4691334/'
p870
aS'http://www.imdb.com/title/tt2108579/'
p871
aS'http://www.imdb.com/title/tt1147523/'
p872
aS'http://www.imdb.com/title/tt0079475/'
p873
aS'http://www.imdb.com/title/tt2334592/'
p874
aS'http://www.imdb.com/title/tt3017864/'
p875
aS'http://www.imdb.com/title/tt2267968/'
p876
aS'http://www.imdb.com/title/tt3198454/'
p877
aS'http://www.imdb.com/title/tt0074631/'
p878
aS'http://www.imdb.com/title/tt1468321/'
p879
aS'http://www.imdb.com/title/tt1920996/'
p880
aS'http://www.imdb.com/title/tt0200223/'
p881
aS'http://www.imdb.com/title/tt1206541/'
p882
aS'http://www.imdb.com/title/tt0471945/'
p883
aS'http://www.imdb.com/title/tt0146347/'
p884
aS'http://www.imdb.com/title/tt1663145/'
p885
aS'http://www.imdb.com/title/tt0099472/'
p886
aS'http://www.imdb.com/title/tt0163080/'
p887
aS'http://www.imdb.com/title/tt4766102/'
p888
aS'http://www.imdb.com/title/tt0219207/'
p889
aS'http://www.imdb.com/title/tt0112453/'
p890
aS'http://www.imdb.com/title/tt2324726/'
p891
aS'http://www.imdb.com/title/tt1958090/'
p892
aS'http://www.imdb.com/title/tt1971466/'
p893
aS'http://www.imdb.com/title/tt2557868/'
p894
aS'http://www.imdb.com/title/tt1277735/'
p895
aS'http://www.imdb.com/title/tt0057669/'
p896
aS'http://www.imdb.com/title/tt5013284/'
p897
aS'http://www.imdb.com/title/tt0397892/'
p898
aS'http://www.imdb.com/title/tt1308730/'
p899
aS'http://www.imdb.com/title/tt0240034/'
p900
aS'http://www.imdb.com/title/tt2041470/'
p901
aS'http://www.imdb.com/title/tt2961890/'
p902
aS'http://www.imdb.com/title/tt0203895/'
p903
aS'http://www.imdb.com/title/tt1511371/'
p904
aS'http://www.imdb.com/title/tt1695770/'
p905
aS'http://www.imdb.com/title/tt0033563/'
p906
aS'http://www.imdb.com/title/tt2022564/'
p907
aS'http://www.imdb.com/title/tt0419954/'
p908
aS'http://www.imdb.com/title/tt1147512/'
p909
aS'http://www.imdb.com/title/tt3808878/'
p910
aS'http://www.imdb.com/title/tt4670968/'
p911
aS'http://www.imdb.com/title/tt1279118/'
p912
aS'http://www.imdb.com/title/tt1872160/'
p913
aS'http://www.imdb.com/title/tt0480507/'
p914
aS'http://www.imdb.com/title/tt0203879/'
p915
aS'http://www.imdb.com/title/tt1927079/'
p916
aS'http://www.imdb.com/title/tt3999322/'
p917
aS'http://www.imdb.com/title/tt0078780/'
p918
aS'http://www.imdb.com/title/tt4144206/'
p919
aS'http://www.imdb.com/title/tt3007608/'
p920
aS'http://www.imdb.com/title/tt1010435/'
p921
aS'http://www.imdb.com/title/tt2851954/'
p922
aS'http://www.imdb.com/title/tt0433375/'
p923
aS'http://www.imdb.com/title/tt0274470/'
p924
aS'http://www.imdb.com/title/tt2080337/'
p925
aS'http://www.imdb.com/title/tt3040120/'
p926
aS'http://www.imdb.com/title/tt0173735/'
p927
aS'http://www.imdb.com/title/tt0442289/'
p928
aS'http://www.imdb.com/title/tt4731504/'
p929
aS'http://www.imdb.com/title/tt0889170/'
p930
aS'http://www.imdb.com/title/tt1606636/'
p931
aS'http://www.imdb.com/title/tt2709692/'
p932
aS'http://www.imdb.com/title/tt1095423/'
p933
aS'http://www.imdb.com/title/tt1636847/'
p934
aS'http://www.imdb.com/title/tt3338434/'
p935
aS'http://www.imdb.com/title/tt2103204/'
p936
aS'http://www.imdb.com/title/tt0238938/'
p937
aS'http://www.imdb.com/title/tt4660628/'
p938
aS'http://www.imdb.com/title/tt0368305/'
p939
aS'http://www.imdb.com/title/tt2205948/'
p940
aS'http://www.imdb.com/title/tt1000758/'
p941
aS'http://www.imdb.com/title/tt0080772/'
p942
aS'http://www.imdb.com/title/tt1822358/'
p943
aS'http://www.imdb.com/title/tt0275230/'
p944
aS'http://www.imdb.com/title/tt0088028/'
p945
aS'http://www.imdb.com/title/tt0295966/'
p946
aS'http://www.imdb.com/title/tt4843742/'
p947
aS'http://www.imdb.com/title/tt0270657/'
p948
aS'http://www.imdb.com/title/tt0318819/'
p949
aS'http://www.imdb.com/title/tt4620592/'
p950
aS'http://www.imdb.com/title/tt2380049/'
p951
aS'http://www.imdb.com/title/tt2714780/'
p952
aS'http://www.imdb.com/title/tt4814366/'
p953
aS'http://www.imdb.com/title/tt0116583/'
p954
aS'http://www.imdb.com/title/tt1791454/'
p955
aS'http://www.imdb.com/title/tt1880984/'
p956
aS'http://www.imdb.com/title/tt3257582/'
p957
aS'http://www.imdb.com/title/tt3726220/'
p958
aS'http://www.imdb.com/title/tt4693418/'
p959
aS'http://www.imdb.com/title/tt1978398/'
p960
aS'http://www.imdb.com/title/tt0195644/'
p961
aS'http://www.imdb.com/title/tt1436561/'
p962
aS'http://www.imdb.com/title/tt1513762/'
p963
aS'http://www.imdb.com/title/tt4199898/'
p964
aS'http://www.imdb.com/title/tt1546036/'
p965
aS'http://www.imdb.com/title/tt4912418/'
p966
aS'http://www.imdb.com/title/tt1966448/'
p967
aS'http://www.imdb.com/title/tt2450486/'
p968
aS'http://www.imdb.com/title/tt0096353/'
p969
aS'http://www.imdb.com/title/tt0075011/'
p970
aS'http://www.imdb.com/title/tt4885958/'
p971
aS'http://www.imdb.com/title/tt0424958/'
p972
aS'http://www.imdb.com/title/tt0065364/'
p973
aS'http://www.imdb.com/title/tt0102954/'
p974
aS'http://www.imdb.com/title/tt1625545/'
p975
aS'http://www.imdb.com/title/tt4153828/'
p976
aS'http://www.imdb.com/title/tt2098658/'
p977
aS'http://www.imdb.com/title/tt3878490/'
p978
aS'http://www.imdb.com/title/tt2292957/'
p979
aS'http://www.imdb.com/title/tt0328880/'
p980
aS'http://www.imdb.com/title/tt0374574/'
p981
aS'http://www.imdb.com/title/tt0119273/'
p982
aS'http://www.imdb.com/title/tt3823116/'
p983
aS'http://www.imdb.com/title/tt0059272/'
p984
aS'http://www.imdb.com/title/tt1685648/'
p985
aS'http://www.imdb.com/title/tt2188356/'
p986
aS'http://www.imdb.com/title/tt1134666/'
p987
aS'http://www.imdb.com/title/tt1827469/'
p988
aS'http://www.imdb.com/title/tt0815096/'
p989
aS'http://www.imdb.com/title/tt3415332/'
p990
aS'http://www.imdb.com/title/tt2050664/'
p991
aS'http://www.imdb.com/title/tt0356147/'
p992
aS'http://www.imdb.com/title/tt0443232/'
p993
aS'http://www.imdb.com/title/tt0304230/'
p994
aS'http://www.imdb.com/title/tt3897080/'
p995
aS'http://www.imdb.com/title/tt1935890/'
p996
aS'http://www.imdb.com/title/tt3454574/'
p997
aS'http://www.imdb.com/title/tt5044760/'
p998
aS'http://www.imdb.com/title/tt4086018/'
p999
aS'http://www.imdb.com/title/tt0114709/'
p1000
aS'http://www.imdb.com/title/tt3579428/'
p1001
aS'http://www.imdb.com/title/tt0300058/'
p1002
aS'http://www.imdb.com/title/tt2658190/'
p1003
aS'http://www.imdb.com/title/tt1683981/'
p1004
aS'http://www.imdb.com/title/tt0090799/'
p1005
aS'http://www.imdb.com/title/tt2619074/'
p1006
aS'http://www.imdb.com/title/tt0041823/'
p1007
aS'http://www.imdb.com/title/tt0422446/'
p1008
aS'http://www.imdb.com/title/tt4162986/'
p1009
aS'http://www.imdb.com/title/tt0065113/'
p1010
aS'http://www.imdb.com/title/tt0070016/'
p1011
aS'http://www.imdb.com/title/tt1838527/'
p1012
aS'http://www.imdb.com/title/tt0382942/'
p1013
aS'http://www.imdb.com/title/tt0074121/'
p1014
aS'http://www.imdb.com/title/tt4541680/'
p1015
aS'http://www.imdb.com/title/tt0259282/'
p1016
aS'http://www.imdb.com/title/tt0152066/'
p1017
aS'http://www.imdb.com/title/tt2750492/'
p1018
aS'http://www.imdb.com/title/tt0119282/'
p1019
aS'http://www.imdb.com/title/tt0405096/'
p1020
aS'http://www.imdb.com/title/tt0400652/'
p1021
aS'http://www.imdb.com/title/tt1754177/'
p1022
aS'http://www.imdb.com/title/tt0293854/'
p1023
aS'http://www.imdb.com/title/tt0373866/'
p1024
aS'http://www.imdb.com/title/tt0169880/'
p1025
aS'http://www.imdb.com/title/tt0081350/'
p1026
aS'http://www.imdb.com/title/tt0170134/'
p1027
aS'http://www.imdb.com/title/tt0096866/'
p1028
aS'http://www.imdb.com/title/tt0986361/'
p1029
aS'http://www.imdb.com/title/tt1832515/'
p1030
aS'http://www.imdb.com/title/tt4766420/'
p1031
aS'http://www.imdb.com/title/tt0418602/'
p1032
aS'http://www.imdb.com/title/tt3332410/'
p1033
aS'http://www.imdb.com/title/tt0174834/'
p1034
aS'http://www.imdb.com/title/tt0282259/'
p1035
aS'http://www.imdb.com/title/tt1488591/'
p1036
aS'http://www.imdb.com/title/tt2084012/'
p1037
aS'http://www.imdb.com/title/tt2651020/'
p1038
aS'http://www.imdb.com/title/tt0308577/'
p1039
aS'http://www.imdb.com/title/tt0259283/'
p1040
aS'http://www.imdb.com/title/tt2756602/'
p1041
aS'http://www.imdb.com/title/tt1702427/'
p1042
aS'http://www.imdb.com/title/tt0441319/'
p1043
aS'http://www.imdb.com/title/tt0120363/'
p1044
aS'http://www.imdb.com/title/tt1413256/'
p1045
aS'http://www.imdb.com/title/tt3688952/'
p1046
aS'http://www.imdb.com/title/tt0455326/'
p1047
aS'http://www.imdb.com/title/tt0142250/'
p1048
aS'http://www.imdb.com/title/tt0267024/'
p1049
aS'http://www.imdb.com/title/tt2375039/'
p1050
aS'http://www.imdb.com/title/tt2219554/'
p1051
aS'http://www.imdb.com/title/tt0263826/'
p1052
aS'http://www.imdb.com/title/tt4841364/'
p1053
aS'http://www.imdb.com/title/tt3818692/'
p1054
aS'http://www.imdb.com/title/tt0376995/'
p1055
aS'http://www.imdb.com/title/tt1401245/'
p1056
aS'http://www.imdb.com/title/tt3091272/'
p1057
aS'http://www.imdb.com/title/tt0302758/'
p1058
aS'http://www.imdb.com/title/tt0226978/'
p1059
aS'http://www.imdb.com/title/tt3859060/'
p1060
aS'http://www.imdb.com/title/tt3364162/'
p1061
aS'http://www.imdb.com/title/tt4677288/'
p1062
aS'http://www.imdb.com/title/tt2193269/'
p1063
aS'http://www.imdb.com/title/tt2077703/'
p1064
aS'http://www.imdb.com/title/tt0114148/'
p1065
aS'http://www.imdb.com/title/tt0498519/'
p1066
aS'http://www.imdb.com/title/tt4568970/'
p1067
aS'http://www.imdb.com/title/tt0819643/'
p1068
aS'http://www.imdb.com/title/tt4248220/'
p1069
aS'http://www.imdb.com/title/tt0149893/'
p1070
aS'http://www.imdb.com/title/tt0930902/'
p1071
aS'http://www.imdb.com/title/tt0110008/'
p1072
aS'http://www.imdb.com/title/tt0399778/'
p1073
aS'http://www.imdb.com/title/tt4637028/'
p1074
aS'http://www.imdb.com/title/tt1164584/'
p1075
aS'http://www.imdb.com/title/tt3539988/'
p1076
aS'http://www.imdb.com/title/tt5002078/'
p1077
aS'http://www.imdb.com/title/tt1080035/'
p1078
aS'http://www.imdb.com/title/tt3318526/'
p1079
aS'http://www.imdb.com/title/tt3262342/'
p1080
aS'http://www.imdb.com/title/tt4466894/'
p1081
aS'http://www.imdb.com/title/tt4651382/'
p1082
aS'http://www.imdb.com/title/tt0192803/'
p1083
aS'http://www.imdb.com/title/tt4806428/'
p1084
aS'http://www.imdb.com/title/tt2396224/'
p1085
aS'http://www.imdb.com/title/tt2309836/'
p1086
aS'http://www.imdb.com/title/tt1235837/'
p1087
aS'http://www.imdb.com/title/tt4325060/'
p1088
aS'http://www.imdb.com/title/tt0142971/'
p1089
aS'http://www.imdb.com/title/tt0142234/'
p1090
aS'http://www.imdb.com/title/tt2878484/'
p1091
aS'http://www.imdb.com/title/tt3147562/'
p1092
aS'http://www.imdb.com/title/tt0818924/'
p1093
aS'http://www.imdb.com/title/tt0113568/'
p1094
aS'http://www.imdb.com/title/tt5061302/'
p1095
aS'http://www.imdb.com/title/tt0163494/'
p1096
aS'http://www.imdb.com/title/tt1683496/'
p1097
aS'http://www.imdb.com/title/tt4685636/'
p1098
aS'http://www.imdb.com/title/tt1636827/'
p1099
aS'http://www.imdb.com/title/tt0064552/'
p1100
aS'http://www.imdb.com/title/tt2231465/'
p1101
aS'http://www.imdb.com/title/tt1667662/'
p1102
aS'http://www.imdb.com/title/tt0062366/'
p1103
aS'http://www.imdb.com/title/tt0296619/'
p1104
aS'http://www.imdb.com/title/tt0802982/'
p1105
aS'http://www.imdb.com/title/tt0165982/'
p1106
aS'http://www.imdb.com/title/tt1570984/'
p1107
aS'http://www.imdb.com/title/tt1863298/'
p1108
aS'http://www.imdb.com/title/tt0066781/'
p1109
aS'http://www.imdb.com/title/tt0209086/'
p1110
aS'http://www.imdb.com/title/tt0485601/'
p1111
aS'http://www.imdb.com/title/tt2201133/'
p1112
aS'http://www.imdb.com/title/tt4247856/'
p1113
aS'http://www.imdb.com/title/tt3097924/'
p1114
aS'http://www.imdb.com/title/tt3673898/'
p1115
aS'http://www.imdb.com/title/tt0222054/'
p1116
aS'http://www.imdb.com/title/tt0435286/'
p1117
aS'http://www.imdb.com/title/tt3183630/'
p1118
aS'http://www.imdb.com/title/tt3342056/'
p1119
aS'http://www.imdb.com/title/tt0965409/'
p1120
aS'http://www.imdb.com/title/tt4500214/'
p1121
aS'http://www.imdb.com/title/tt0099524/'
p1122
aS'http://www.imdb.com/title/tt4586644/'
p1123
aS'http://www.imdb.com/title/tt1773800/'
p1124
aS'http://www.imdb.com/title/tt4302938/'
p1125
aS'http://www.imdb.com/title/tt0368373/'
p1126
aS'http://www.imdb.com/title/tt2078651/'
p1127
aS'http://www.imdb.com/title/tt0337711/'
p1128
aS'http://www.imdb.com/title/tt1340108/'
p1129
aS'http://www.imdb.com/title/tt1753493/'
p1130
aS'http://www.imdb.com/title/tt4863768/'
p1131
aS'http://www.imdb.com/title/tt3692090/'
p1132
aS'http://www.imdb.com/title/tt0345950/'
p1133
aS'http://www.imdb.com/title/tt1784487/'
p1134
aS'http://www.imdb.com/title/tt0034492/'
p1135
aS'http://www.imdb.com/title/tt4283240/'
p1136
aS'http://www.imdb.com/title/tt4132834/'
p1137
aS'http://www.imdb.com/title/tt0444629/'
p1138
aS'http://www.imdb.com/title/tt1056437/'
p1139
aS'http://www.imdb.com/title/tt1220673/'
p1140
aS'http://www.imdb.com/title/tt2768474/'
p1141
aS'http://www.imdb.com/title/tt3881410/'
p1142
aS'http://www.imdb.com/title/tt0448150/'
p1143
aS'http://www.imdb.com/title/tt0045040/'
p1144
aS'http://www.imdb.com/title/tt0149215/'
p1145
aS'http://www.imdb.com/title/tt0100912/'
p1146
aS'http://www.imdb.com/title/tt0029851/'
p1147
aS'http://www.imdb.com/title/tt2265279/'
p1148
aS'http://www.imdb.com/title/tt0086857/'
p1149
aS'http://www.imdb.com/title/tt2279373/'
p1150
aS'http://www.imdb.com/title/tt3435632/'
p1151
aS'http://www.imdb.com/title/tt3977982/'
p1152
aS'http://www.imdb.com/title/tt2186751/'
p1153
aS'http://www.imdb.com/title/tt2265673/'
p1154
aS'http://www.imdb.com/title/tt0495289/'
p1155
aS'http://www.imdb.com/title/tt0124031/'
p1156
aS'http://www.imdb.com/title/tt1860353/'
p1157
aS'http://www.imdb.com/title/tt1412706/'
p1158
aS'http://www.imdb.com/title/tt0075811/'
p1159
aS'http://www.imdb.com/title/tt0033727/'
p1160
aS'http://www.imdb.com/title/tt4693398/'
p1161
aS'http://www.imdb.com/title/tt0212116/'
p1162
aS'http://www.imdb.com/title/tt3817058/'
p1163
aS'http://www.imdb.com/title/tt3896102/'
p1164
aS'http://www.imdb.com/title/tt0768189/'
p1165
aS'http://www.imdb.com/title/tt3413334/'
p1166
aS'http://www.imdb.com/title/tt3246908/'
p1167
aS'http://www.imdb.com/title/tt0765446/'
p1168
aS'http://www.imdb.com/title/tt1147520/'
p1169
aS'http://www.imdb.com/title/tt0782679/'
p1170
aS'http://www.imdb.com/title/tt1468322/'
p1171
aS'http://www.imdb.com/title/tt1984276/'
p1172
aS'http://www.imdb.com/title/tt0156787/'
p1173
aS'http://www.imdb.com/title/tt3715846/'
p1174
aS'http://www.imdb.com/title/tt2241224/'
p1175
aS'http://www.imdb.com/title/tt1776196/'
p1176
aS'http://www.imdb.com/title/tt4331400/'
p1177
aS'http://www.imdb.com/title/tt3172194/'
p1178
aS'http://www.imdb.com/title/tt0390159/'
p1179
aS'http://www.imdb.com/title/tt0293778/'
p1180
aS'http://www.imdb.com/title/tt0313680/'
p1181
aS'http://www.imdb.com/title/tt0066328/'
p1182
aS'http://www.imdb.com/title/tt2141773/'
p1183
aS'http://www.imdb.com/title/tt2375938/'
p1184
aS'http://www.imdb.com/title/tt0104623/'
p1185
aS'http://www.imdb.com/title/tt3656252/'
p1186
aS'http://www.imdb.com/title/tt4007056/'
p1187
aS'http://www.imdb.com/title/tt3574822/'
p1188
aS'http://www.imdb.com/title/tt1224370/'
p1189
aS'http://www.imdb.com/title/tt0187781/'
p1190
aS'http://www.imdb.com/title/tt1371126/'
p1191
aS'http://www.imdb.com/title/tt1865375/'
p1192
aS'http://www.imdb.com/title/tt4116284/'
p1193
aS'http://www.imdb.com/title/tt0470745/'
p1194
aS'http://www.imdb.com/title/tt3501062/'
p1195
aS'http://www.imdb.com/title/tt0093207/'
p1196
aS'http://www.imdb.com/title/tt1942109/'
p1197
aS'http://www.imdb.com/title/tt0418867/'
p1198
aS'http://www.imdb.com/title/tt0073814/'
p1199
aS'http://www.imdb.com/title/tt3089632/'
p1200
aS'http://www.imdb.com/title/tt2463742/'
p1201
aS'http://www.imdb.com/title/tt2408030/'
p1202
aS'http://www.imdb.com/title/tt0289171/'
p1203
aS'http://www.imdb.com/title/tt4875954/'
p1204
aS'http://www.imdb.com/title/tt0092723/'
p1205
aS'http://www.imdb.com/title/tt1283286/'
p1206
aS'http://www.imdb.com/title/tt2643796/'
p1207
aS'http://www.imdb.com/title/tt4203832/'
p1208
aS'http://www.imdb.com/title/tt0145956/'
p1209
aS'http://www.imdb.com/title/tt4522944/'
p1210
aS'http://www.imdb.com/title/tt3210408/'
p1211
aS'http://www.imdb.com/title/tt4921074/'
p1212
aS'http://www.imdb.com/title/tt0268880/'
p1213
aS'http://www.imdb.com/title/tt0058734/'
p1214
aS'http://www.imdb.com/title/tt3717532/'
p1215
aS'http://www.imdb.com/title/tt2170474/'
p1216
aS'http://www.imdb.com/title/tt0092917/'
p1217
aS'http://www.imdb.com/title/tt4298420/'
p1218
aS'http://www.imdb.com/title/tt2277860/'
p1219
aS'http://www.imdb.com/title/tt1844663/'
p1220
aS'http://www.imdb.com/title/tt4007068/'
p1221
aS'http://www.imdb.com/title/tt0494032/'
p1222
aS'http://www.imdb.com/title/tt1927007/'
p1223
aS'http://www.imdb.com/title/tt2380281/'
p1224
aS'http://www.imdb.com/title/tt2364816/'
p1225
aS'http://www.imdb.com/title/tt0120910/'
p1226
aS'http://www.imdb.com/title/tt1869724/'
p1227
aS'http://www.imdb.com/title/tt2368717/'
p1228
aS'http://www.imdb.com/title/tt0286927/'
p1229
aS'http://www.imdb.com/title/tt1321410/'
p1230
aS'http://www.imdb.com/title/tt3723780/'
p1231
aS'http://www.imdb.com/title/tt0222724/'
p1232
aS'http://www.imdb.com/title/tt4543872/'
p1233
aS'http://www.imdb.com/title/tt4415478/'
p1234
aS'http://www.imdb.com/title/tt4125300/'
p1235
aS'http://www.imdb.com/title/tt0295950/'
p1236
aS'http://www.imdb.com/title/tt0078915/'
p1237
aS'http://www.imdb.com/title/tt0201183/'
p1238
aS'http://www.imdb.com/title/tt0109781/'
p1239
aS'http://www.imdb.com/title/tt0188506/'
p1240
aS'http://www.imdb.com/title/tt2113091/'
p1241
aS'http://www.imdb.com/title/tt0384923/'
p1242
aS'http://www.imdb.com/title/tt0095262/'
p1243
aS'http://www.imdb.com/title/tt3095734/'
p1244
aS'http://www.imdb.com/title/tt3261672/'
p1245
aS'http://www.imdb.com/title/tt1160710/'
p1246
aS'http://www.imdb.com/title/tt1302011/'
p1247
aS'http://www.imdb.com/title/tt4539628/'
p1248
aS'http://www.imdb.com/title/tt2309979/'
p1249
aS'http://www.imdb.com/title/tt1043748/'
p1250
aS'http://www.imdb.com/title/tt4954660/'
p1251
aS'http://www.imdb.com/title/tt2040434/'
p1252
aS'http://www.imdb.com/title/tt5039360/'
p1253
aS'http://www.imdb.com/title/tt0097757/'
p1254
aS'http://www.imdb.com/title/tt0473435/'
p1255
aS'http://www.imdb.com/title/tt0223391/'
p1256
aS'http://www.imdb.com/title/tt0390165/'
p1257
aS'http://www.imdb.com/title/tt2513552/'
p1258
aS'http://www.imdb.com/title/tt3484160/'
p1259
aS'http://www.imdb.com/title/tt1796740/'
p1260
aS'http://www.imdb.com/title/tt0160869/'
p1261
aS'http://www.imdb.com/title/tt0078287/'
p1262
aS'http://www.imdb.com/title/tt0265018/'
p1263
aS'http://www.imdb.com/title/tt0291061/'
p1264
aS'http://www.imdb.com/title/tt3415692/'
p1265
aS'http://www.imdb.com/title/tt2357365/'
p1266
aS'http://www.imdb.com/title/tt0110914/'
p1267
aS'http://www.imdb.com/title/tt1155652/'
p1268
aS'http://www.imdb.com/title/tt0206743/'
p1269
aS'http://www.imdb.com/title/tt1430628/'
p1270
aS'http://www.imdb.com/title/tt1350484/'
p1271
aS'http://www.imdb.com/title/tt4800520/'
p1272
aS'http://www.imdb.com/title/tt3138698/'
p1273
aS'http://www.imdb.com/title/tt2063773/'
p1274
aS'http://www.imdb.com/title/tt1787105/'
p1275
aS'http://www.imdb.com/title/tt0071361/'
p1276
aS'http://www.imdb.com/title/tt0953478/'
p1277
aS'http://www.imdb.com/title/tt0441773/'
p1278
aS'http://www.imdb.com/title/tt0356146/'
p1279
aS'http://www.imdb.com/title/tt0084509/'
p1280
aS'http://www.imdb.com/title/tt1690953/'
p1281
aS'http://www.imdb.com/title/tt0884830/'
p1282
aS'http://www.imdb.com/title/tt1612776/'
p1283
aS'http://www.imdb.com/title/tt4832952/'
p1284
aS'http://www.imdb.com/title/tt0098598/'
p1285
aS'http://www.imdb.com/title/tt3122122/'
p1286
aS'http://www.imdb.com/title/tt0430271/'
p1287
aS'http://www.imdb.com/title/tt0382114/'
p1288
aS'http://www.imdb.com/title/tt0142242/'
p1289
aS'http://www.imdb.com/title/tt3495266/'
p1290
aS'http://www.imdb.com/title/tt1185646/'
p1291
aS'http://www.imdb.com/title/tt0285868/'
p1292
aS'http://www.imdb.com/title/tt0311618/'
p1293
aS'http://www.imdb.com/title/tt1323594/'
p1294
aS'http://www.imdb.com/title/tt0493247/'
p1295
aS'http://www.imdb.com/title/tt2938376/'
p1296
aS'http://www.imdb.com/title/tt4618398/'
p1297
aS'http://www.imdb.com/title/tt0055246/'
p1298
aS'http://www.imdb.com/title/tt1655413/'
p1299
aS'http://www.imdb.com/title/tt2243621/'
p1300
aS'http://www.imdb.com/title/tt0145728/'
p1301
aS'http://www.imdb.com/title/tt0127464/'
p1302
aS'http://www.imdb.com/title/tt0326101/'
p1303
aS'http://www.imdb.com/title/tt4820102/'
p1304
aS'http://www.imdb.com/title/tt1568921/'
p1305
aS'http://www.imdb.com/title/tt1282036/'
p1306
aS'http://www.imdb.com/title/tt1796657/'
p1307
aS'http://www.imdb.com/title/tt2997076/'
p1308
aS'http://www.imdb.com/title/tt2160163/'
p1309
aS'http://www.imdb.com/title/tt4693318/'
p1310
aS'http://www.imdb.com/title/tt2231489/'
p1311
aS'http://www.imdb.com/title/tt0273772/'
p1312
aS'http://www.imdb.com/title/tt1059944/'
p1313
aS'http://www.imdb.com/title/tt2691524/'
p1314
aS'http://www.imdb.com/title/tt0076416/'
p1315
aS'http://www.imdb.com/title/tt0351283/'
p1316
aS'http://www.imdb.com/title/tt0811021/'
p1317
aS'http://www.imdb.com/title/tt2898632/'
p1318
aS'http://www.imdb.com/title/tt0876226/'
p1319
aS'http://www.imdb.com/title/tt2980596/'
p1320
aS'http://www.imdb.com/title/tt1852151/'
p1321
aS'http://www.imdb.com/title/tt0088748/'
p1322
aS'http://www.imdb.com/title/tt0295341/'
p1323
aS'http://www.imdb.com/title/tt0272228/'
p1324
aS'http://www.imdb.com/title/tt2281571/'
p1325
aS'http://www.imdb.com/title/tt1319554/'
p1326
aS'http://www.imdb.com/title/tt0218170/'
p1327
aS'http://www.imdb.com/title/tt0142251/'
p1328
aS'http://www.imdb.com/title/tt0372238/'
p1329
aS'http://www.imdb.com/title/tt2510924/'
p1330
aS'http://www.imdb.com/title/tt0067749/'
p1331
aS'http://www.imdb.com/title/tt1978599/'
p1332
aS'http://www.imdb.com/title/tt3171016/'
p1333
aS'http://www.imdb.com/title/tt3204012/'
p1334
aS'http://www.imdb.com/title/tt3852432/'
p1335
aS'http://www.imdb.com/title/tt1670262/'
p1336
aS'http://www.imdb.com/title/tt0364458/'
p1337
aS'http://www.imdb.com/title/tt0452226/'
p1338
aS'http://www.imdb.com/title/tt0206366/'
p1339
aS'http://www.imdb.com/title/tt0205971/'
p1340
aS'http://www.imdb.com/title/tt4643142/'
p1341
aS'http://www.imdb.com/title/tt0076119/'
p1342
aS'http://www.imdb.com/title/tt3668554/'
p1343
aS'http://www.imdb.com/title/tt0457024/'
p1344
aS'http://www.imdb.com/title/tt0204600/'
p1345
aS'http://www.imdb.com/title/tt1172587/'
p1346
aS'http://www.imdb.com/title/tt0482925/'
p1347
aS'http://www.imdb.com/title/tt3505596/'
p1348
aS'http://www.imdb.com/title/tt3915174/'
p1349
aS'http://www.imdb.com/title/tt1410243/'
p1350
aS'http://www.imdb.com/title/tt0080461/'
p1351
aS'http://www.imdb.com/title/tt0099911/'
p1352
aS'http://www.imdb.com/title/tt2194724/'
p1353
aS'http://www.imdb.com/title/tt0238357/'
p1354
aS'http://www.imdb.com/title/tt4525406/'
p1355
aS'http://www.imdb.com/title/tt0378262/'
p1356
aS'http://www.imdb.com/title/tt1756873/'
p1357
aS'http://www.imdb.com/title/tt1989450/'
p1358
aS'http://www.imdb.com/title/tt0137204/'
p1359
aS'http://www.imdb.com/title/tt2424520/'
p1360
aS'http://www.imdb.com/title/tt0353358/'
p1361
aS'http://www.imdb.com/title/tt2876384/'
p1362
aS'http://www.imdb.com/title/tt4357692/'
p1363
aS'http://www.imdb.com/title/tt0416873/'
p1364
aS'http://www.imdb.com/title/tt0999910/'
p1365
aS'http://www.imdb.com/title/tt0219421/'
p1366
aS'http://www.imdb.com/title/tt0061931/'
p1367
aS'http://www.imdb.com/title/tt0940657/'
p1368
aS'http://www.imdb.com/title/tt0142632/'
p1369
aS'http://www.imdb.com/title/tt0145671/'
p1370
aS'http://www.imdb.com/title/tt1532568/'
p1371
aS'http://www.imdb.com/title/tt1254956/'
p1372
aS'http://www.imdb.com/title/tt0251670/'
p1373
aS'http://www.imdb.com/title/tt1459037/'
p1374
aS'http://www.imdb.com/title/tt0462538/'
p1375
aS'http://www.imdb.com/title/tt4881456/'
p1376
aS'http://www.imdb.com/title/tt1941466/'
p1377
aS'http://www.imdb.com/title/tt0131485/'
p1378
aS'http://www.imdb.com/title/tt0102587/'
p1379
aS'http://www.imdb.com/title/tt0299040/'
p1380
aS'http://www.imdb.com/title/tt4204096/'
p1381
aS'http://www.imdb.com/title/tt0215088/'
p1382
aS'http://www.imdb.com/title/tt0061797/'
p1383
aS'http://www.imdb.com/title/tt3469670/'
p1384
aS'http://www.imdb.com/title/tt1260575/'
p1385
aS'http://www.imdb.com/title/tt1260502/'
p1386
aS'http://www.imdb.com/title/tt1855268/'
p1387
aS'http://www.imdb.com/title/tt3687292/'
p1388
aS'http://www.imdb.com/title/tt4601006/'
p1389
aS'http://www.imdb.com/title/tt2356478/'
p1390
aS'http://www.imdb.com/title/tt1707688/'
p1391
aS'http://www.imdb.com/title/tt2403011/'
p1392
aS'http://www.imdb.com/title/tt0095489/'
p1393
aS'http://www.imdb.com/title/tt1679593/'
p1394
aS'http://www.imdb.com/title/tt2066110/'
p1395
aS'http://www.imdb.com/title/tt3007766/'
p1396
aS'http://www.imdb.com/title/tt0293093/'
p1397
aS'http://www.imdb.com/title/tt2124046/'
p1398
aS'http://www.imdb.com/title/tt4838278/'
p1399
aS'http://www.imdb.com/title/tt0173406/'
p1400
aS'http://www.imdb.com/title/tt0249516/'
p1401
aS'http://www.imdb.com/title/tt0373210/'
p1402
aS'http://www.imdb.com/title/tt1980102/'
p1403
aS'http://www.imdb.com/title/tt0124247/'
p1404
aS'http://www.imdb.com/title/tt1934331/'
p1405
aS'http://www.imdb.com/title/tt2543538/'
p1406
aS'http://www.imdb.com/title/tt2180441/'
p1407
aS'http://www.imdb.com/title/tt3411432/'
p1408
aS'http://www.imdb.com/title/tt4519530/'
p1409
aS'http://www.imdb.com/title/tt4130762/'
p1410
aS'http://www.imdb.com/title/tt1343046/'
p1411
aS'http://www.imdb.com/title/tt2077908/'
p1412
aS'http://www.imdb.com/title/tt0227528/'
p1413
aS'http://www.imdb.com/title/tt3635770/'
p1414
aS'http://www.imdb.com/title/tt0102184/'
p1415
aS'http://www.imdb.com/title/tt0371676/'
p1416
aS'http://www.imdb.com/title/tt0127458/'
p1417
aS'http://www.imdb.com/title/tt0079648/'
p1418
aS'http://www.imdb.com/title/tt1856057/'
p1419
aS'http://www.imdb.com/title/tt4729430/'
p1420
aS'http://www.imdb.com/title/tt0458779/'
p1421
aS'http://www.imdb.com/title/tt0961185/'
p1422
aS'http://www.imdb.com/title/tt1661872/'
p1423
aS'http://www.imdb.com/title/tt2107737/'
p1424
aS'http://www.imdb.com/title/tt2572056/'
p1425
aS'http://www.imdb.com/title/tt0356025/'
p1426
aS'http://www.imdb.com/title/tt1567370/'
p1427
aS'http://www.imdb.com/title/tt0476308/'
p1428
aS'http://www.imdb.com/title/tt1308100/'
p1429
aS'http://www.imdb.com/title/tt3985472/'
p1430
aS'http://www.imdb.com/title/tt0137226/'
p1431
aS'http://www.imdb.com/title/tt4046308/'
p1432
aS'http://www.imdb.com/title/tt0062466/'
p1433
aS'http://www.imdb.com/title/tt0347701/'
p1434
aS'http://www.imdb.com/title/tt1492954/'
p1435
aS'http://www.imdb.com/title/tt0308353/'
p1436
aS'http://www.imdb.com/title/tt0103609/'
p1437
aS'http://www.imdb.com/title/tt0380724/'
p1438
aS'http://www.imdb.com/title/tt0335350/'
p1439
aS'http://www.imdb.com/title/tt1630601/'
p1440
aS'http://www.imdb.com/title/tt0104298/'
p1441
aS'http://www.imdb.com/title/tt1147521/'
p1442
aS'http://www.imdb.com/title/tt3004630/'
p1443
aS'http://www.imdb.com/title/tt0026793/'
p1444
aS'http://www.imdb.com/title/tt3596856/'
p1445
aS'http://www.imdb.com/title/tt0270265/'
p1446
aS'http://www.imdb.com/title/tt4139506/'
p1447
aS'http://www.imdb.com/title/tt0306741/'
p1448
aS'http://www.imdb.com/title/tt1202580/'
p1449
aS'http://www.imdb.com/title/tt2265305/'
p1450
aS'http://www.imdb.com/title/tt2371337/'
p1451
aS'http://www.imdb.com/title/tt1483849/'
p1452
aS'http://www.imdb.com/title/tt4793326/'
p1453
aS'http://www.imdb.com/title/tt0071203/'
p1454
aS'http://www.imdb.com/title/tt0814243/'
p1455
aS'http://www.imdb.com/title/tt1158281/'
p1456
aS'http://www.imdb.com/title/tt1169841/'
p1457
aS'http://www.imdb.com/title/tt0311108/'
p1458
aS'http://www.imdb.com/title/tt4562088/'
p1459
aS'http://www.imdb.com/title/tt4112930/'
p1460
aS'http://www.imdb.com/title/tt0829187/'
p1461
aS'http://www.imdb.com/title/tt1233474/'
p1462
aS'http://www.imdb.com/title/tt0333714/'
p1463
aS'http://www.imdb.com/title/tt2118024/'
p1464
aS'http://www.imdb.com/title/tt1391548/'
p1465
aS'http://www.imdb.com/title/tt3521164/'
p1466
aS'http://www.imdb.com/title/tt0064961/'
p1467
aS'http://www.imdb.com/title/tt2235575/'
p1468
aS'http://www.imdb.com/title/tt3076510/'
p1469
aS'http://www.imdb.com/title/tt0060661/'
p1470
aS'http://www.imdb.com/title/tt2241287/'
p1471
aS'http://www.imdb.com/title/tt0347246/'
p1472
aS'http://www.imdb.com/title/tt2347782/'
p1473
aS'http://www.imdb.com/title/tt1801025/'
p1474
aS'http://www.imdb.com/title/tt0304931/'
p1475
aS'http://www.imdb.com/title/tt0326143/'
p1476
aS'http://www.imdb.com/title/tt2117996/'
p1477
aS'http://www.imdb.com/title/tt3710822/'
p1478
aS'http://www.imdb.com/title/tt4104962/'
p1479
aS'http://www.imdb.com/title/tt1788392/'
p1480
aS'http://www.imdb.com/title/tt2323723/'
p1481
aS'http://www.imdb.com/title/tt0285060/'
p1482
aS'http://www.imdb.com/title/tt1934342/'
p1483
aS'http://www.imdb.com/title/tt3638012/'
p1484
aS'http://www.imdb.com/title/tt0022068/'
p1485
aS'http://www.imdb.com/title/tt1147510/'
p1486
aS'http://www.imdb.com/title/tt1817290/'
p1487
aS'http://www.imdb.com/title/tt1068997/'
p1488
aS'http://www.imdb.com/title/tt0065106/'
p1489
aS'http://www.imdb.com/title/tt0074657/'
p1490
aS'http://www.imdb.com/title/tt0435761/'
p1491
aS'http://www.imdb.com/title/tt0095431/'
p1492
aS'http://www.imdb.com/title/tt3832326/'
p1493
aS'http://www.imdb.com/title/tt0230078/'
p1494
aS'http://www.imdb.com/title/tt1740055/'
p1495
aS'http://www.imdb.com/title/tt0215479/'
p1496
aS'http://www.imdb.com/title/tt2322316/'
p1497
aS'http://www.imdb.com/title/tt0211310/'
p1498
aS'http://www.imdb.com/title/tt0057546/'
p1499
aS'http://www.imdb.com/title/tt0058230/'
p1500
aS'http://www.imdb.com/title/tt0068612/'
p1501
aS'http://www.imdb.com/title/tt0156646/'
p1502
aS'http://www.imdb.com/title/tt0190270/'
p1503
aS'http://www.imdb.com/title/tt3615160/'
p1504
aS'http://www.imdb.com/title/tt2261230/'
p1505
aS'http://www.imdb.com/title/tt1860308/'
p1506
aS'http://www.imdb.com/title/tt3499158/'
p1507
aS'http://www.imdb.com/title/tt0419724/'
p1508
aS'http://www.imdb.com/title/tt3565026/'
p1509
aS'http://www.imdb.com/title/tt0179829/'
p1510
aS'http://www.imdb.com/title/tt0120644/'
p1511
aS'http://www.imdb.com/title/tt1313120/'
p1512
aS'http://www.imdb.com/title/tt2141789/'
p1513
aS'http://www.imdb.com/title/tt0388820/'
p1514
aS'http://www.imdb.com/title/tt0447249/'
p1515
aS'http://www.imdb.com/title/tt4556038/'
p1516
aS'http://www.imdb.com/title/tt4367562/'
p1517
aS'http://www.imdb.com/title/tt0120913/'
p1518
aS'http://www.imdb.com/title/tt0244560/'
p1519
aS'http://www.imdb.com/title/tt0353014/'
p1520
aS'http://www.imdb.com/title/tt0164240/'
p1521
aS'http://www.imdb.com/title/tt2506858/'
p1522
aS'http://www.imdb.com/title/tt0283426/'
p1523
aS'http://www.imdb.com/title/tt0208453/'
p1524
aS'http://www.imdb.com/title/tt3763866/'
p1525
aS'http://www.imdb.com/title/tt0287470/'
p1526
aS'http://www.imdb.com/title/tt3036576/'
p1527
aS'http://www.imdb.com/title/tt0443123/'
p1528
aS'http://www.imdb.com/title/tt0356201/'
p1529
aS'http://www.imdb.com/title/tt1372301/'
p1530
aS'http://www.imdb.com/title/tt0040215/'
p1531
aS'http://www.imdb.com/title/tt0119899/'
p1532
aS'http://www.imdb.com/title/tt0008840/'
p1533
aS'http://www.imdb.com/title/tt0124147/'
p1534
aS'http://www.imdb.com/title/tt1453967/'
p1535
aS'http://www.imdb.com/title/tt1381803/'
p1536
aS'http://www.imdb.com/title/tt0207111/'
p1537
aS'http://www.imdb.com/title/tt0076922/'
p1538
aS'http://www.imdb.com/title/tt3454148/'
p1539
aS'http://www.imdb.com/title/tt0227517/'
p1540
aS'http://www.imdb.com/title/tt0042332/'
p1541
aS'http://www.imdb.com/title/tt0299619/'
p1542
aS'http://www.imdb.com/title/tt0093019/'
p1543
aS'http://www.imdb.com/title/tt4823776/'
p1544
aS'http://www.imdb.com/title/tt0138749/'
p1545
aS'http://www.imdb.com/title/tt1720267/'
p1546
aS'http://www.imdb.com/title/tt4769824/'
p1547
aS'http://www.imdb.com/title/tt0259284/'
p1548
aS'http://www.imdb.com/title/tt0100477/'
p1549
aS'http://www.imdb.com/title/tt3892682/'
p1550
aS'http://www.imdb.com/title/tt0210234/'
p1551
aS'http://www.imdb.com/title/tt4714256/'
p1552
aS'http://www.imdb.com/title/tt1979172/'
p1553
aS'http://www.imdb.com/title/tt4522974/'
p1554
aS'http://www.imdb.com/title/tt2022528/'
p1555
aS'http://www.imdb.com/title/tt0390164/'
p1556
aS'http://www.imdb.com/title/tt0965649/'
p1557
aS'http://www.imdb.com/title/tt1242464/'
p1558
aS'http://www.imdb.com/title/tt0831848/'
p1559
aS'http://www.imdb.com/title/tt0318155/'
p1560
aS'http://www.imdb.com/title/tt0284238/'
p1561
aS'http://www.imdb.com/title/tt0235679/'
p1562
aS'http://www.imdb.com/title/tt4738728/'
p1563
aS'http://www.imdb.com/title/tt0105616/'
p1564
aS'http://www.imdb.com/title/tt0159568/'
p1565
aS'http://www.imdb.com/title/tt0485323/'
p1566
aS'http://www.imdb.com/title/tt0295848/'
p1567
aS'http://www.imdb.com/title/tt1220911/'
p1568
aS'http://www.imdb.com/title/tt0212581/'
p1569
aS'http://www.imdb.com/title/tt0266462/'
p1570
aS'http://www.imdb.com/title/tt0088983/'
p1571
aS'http://www.imdb.com/title/tt0051694/'
p1572
aS'http://www.imdb.com/title/tt1703945/'
p1573
aS'http://www.imdb.com/title/tt1961324/'
p1574
aS'http://www.imdb.com/title/tt0280030/'
p1575
aS'http://www.imdb.com/title/tt1458167/'
p1576
aS'http://www.imdb.com/title/tt3224156/'
p1577
aS'http://www.imdb.com/title/tt0036766/'
p1578
aS'http://www.imdb.com/title/tt2768084/'
p1579
aS'http://www.imdb.com/title/tt0082406/'
p1580
aS'http://www.imdb.com/title/tt0198602/'
p1581
aS'http://www.imdb.com/title/tt1537967/'
p1582
aS'http://www.imdb.com/title/tt3949650/'
p1583
aS'http://www.imdb.com/title/tt4426464/'
p1584
aS'http://www.imdb.com/title/tt1174954/'
p1585
aS'http://www.imdb.com/title/tt2458948/'
p1586
aS'http://www.imdb.com/title/tt2399537/'
p1587
aS'http://www.imdb.com/title/tt4971484/'
p1588
aS'http://www.imdb.com/title/tt0144667/'
p1589
aS'http://www.imdb.com/title/tt1337718/'
p1590
aS'http://www.imdb.com/title/tt0170180/'
p1591
aS'http://www.imdb.com/title/tt0212115/'
p1592
aS'http://www.imdb.com/title/tt0350194/'
p1593
aS'http://www.imdb.com/title/tt1786454/'
p1594
aS'http://www.imdb.com/title/tt0239657/'
p1595
aS'http://www.imdb.com/title/tt0071913/'
p1596
aS'http://www.imdb.com/title/tt0875155/'
p1597
aS'http://www.imdb.com/title/tt0037201/'
p1598
aS'http://www.imdb.com/title/tt1563153/'
p1599
aS'http://www.imdb.com/title/tt3818654/'
p1600
aS'http://www.imdb.com/title/tt0820054/'
p1601
aS'http://www.imdb.com/title/tt1592517/'
p1602
aS'http://www.imdb.com/title/tt0127539/'
p1603
aS'http://www.imdb.com/title/tt1990421/'
p1604
aS'http://www.imdb.com/title/tt0929265/'
p1605
aS'http://www.imdb.com/title/tt0892791/'
p1606
aS'http://www.imdb.com/title/tt0078349/'
p1607
aS'http://www.imdb.com/title/tt4641286/'
p1608
aS'http://www.imdb.com/title/tt0385141/'
p1609
aS'http://www.imdb.com/title/tt0296281/'
p1610
aS'http://www.imdb.com/title/tt0191629/'
p1611
aS'http://www.imdb.com/title/tt1442556/'
p1612
aS'http://www.imdb.com/title/tt0084070/'
p1613
aS'http://www.imdb.com/title/tt1180335/'
p1614
aS'http://www.imdb.com/title/tt0805605/'
p1615
aS'http://www.imdb.com/title/tt0026156/'
p1616
aS'http://www.imdb.com/title/tt3851982/'
p1617
aS'http://www.imdb.com/title/tt2207572/'
p1618
aS'http://www.imdb.com/title/tt0322645/'
p1619
aS'http://www.imdb.com/title/tt1793224/'
p1620
aS'http://www.imdb.com/title/tt4501428/'
p1621
aS'http://www.imdb.com/title/tt1679583/'
p1622
aS'http://www.imdb.com/title/tt0185757/'
p1623
aS'http://www.imdb.com/title/tt0094238/'
p1624
aS'http://www.imdb.com/title/tt2072118/'
p1625
aS'http://www.imdb.com/title/tt1042916/'
p1626
aS'http://www.imdb.com/title/tt2306873/'
p1627
aS'http://www.imdb.com/title/tt0145772/'
p1628
aS'http://www.imdb.com/title/tt2147335/'
p1629
aS'http://www.imdb.com/title/tt1657293/'
p1630
aS'http://www.imdb.com/title/tt2402165/'
p1631
aS'http://www.imdb.com/title/tt0022874/'
p1632
aS'http://www.imdb.com/title/tt1869458/'
p1633
aS'http://www.imdb.com/title/tt0346900/'
p1634
aS'http://www.imdb.com/title/tt3435652/'
p1635
aS'http://www.imdb.com/title/tt1132622/'
p1636
aS'http://www.imdb.com/title/tt2053359/'
p1637
aS'http://www.imdb.com/title/tt4126480/'
p1638
aS'http://www.imdb.com/title/tt2709606/'
p1639
aS'http://www.imdb.com/title/tt0892782/'
p1640
aS'http://www.imdb.com/title/tt4162910/'
p1641
aS'http://www.imdb.com/title/tt4877086/'
p1642
aS'http://www.imdb.com/title/tt1326140/'
p1643
aS'http://www.imdb.com/title/tt0077869/'
p1644
aS'http://www.imdb.com/title/tt2836400/'
p1645
aS'http://www.imdb.com/title/tt0465502/'
p1646
aS'http://www.imdb.com/title/tt0277955/'
p1647
aS'http://www.imdb.com/title/tt4936426/'
p1648
aS'http://www.imdb.com/title/tt0142236/'
p1649
aS'http://www.imdb.com/title/tt4468650/'
p1650
aS'http://www.imdb.com/title/tt1245468/'
p1651
aS'http://www.imdb.com/title/tt2980706/'
p1652
aS'http://www.imdb.com/title/tt2708602/'
p1653
aS'http://www.imdb.com/title/tt1217042/'
p1654
aS'http://www.imdb.com/title/tt2034122/'
p1655
aS'http://www.imdb.com/title/tt0130847/'
p1656
aS'http://www.imdb.com/title/tt0190006/'
p1657
aS'http://www.imdb.com/title/tt0230462/'
p1658
aS'http://www.imdb.com/title/tt1660362/'
p1659
aS'http://www.imdb.com/title/tt1891905/'
p1660
aS'http://www.imdb.com/title/tt2771178/'
p1661
aS'http://www.imdb.com/title/tt1577113/'
p1662
aS'http://www.imdb.com/title/tt1636824/'
p1663
aS'http://www.imdb.com/title/tt0408636/'
p1664
aS'http://www.imdb.com/title/tt4531412/'
p1665
aS'http://www.imdb.com/title/tt0890889/'
p1666
aS'http://www.imdb.com/title/tt1446181/'
p1667
aS'http://www.imdb.com/title/tt0350682/'
p1668
aS'http://www.imdb.com/title/tt3172170/'
p1669
aS'http://www.imdb.com/title/tt1454628/'
p1670
aS'http://www.imdb.com/title/tt0142238/'
p1671
aS'http://www.imdb.com/title/tt0356577/'
p1672
aS'http://www.imdb.com/title/tt2287867/'
p1673
aS'http://www.imdb.com/title/tt3043848/'
p1674
aS'http://www.imdb.com/title/tt4126926/'
p1675
aS'http://www.imdb.com/title/tt2234550/'
p1676
aS'http://www.imdb.com/title/tt0380678/'
p1677
aS'http://www.imdb.com/title/tt0275876/'
p1678
aS'http://www.imdb.com/title/tt0131591/'
p1679
aS'http://www.imdb.com/title/tt3519512/'
p1680
aS'http://www.imdb.com/title/tt1999132/'
p1681
aS'http://www.imdb.com/title/tt3644570/'
p1682
aS'http://www.imdb.com/title/tt4701724/'
p1683
aS'http://www.imdb.com/title/tt1285305/'
p1684
aS'http://www.imdb.com/title/tt2398241/'
p1685
aS'http://www.imdb.com/title/tt1215847/'
p1686
aS'http://www.imdb.com/title/tt1487931/'
p1687
aS'http://www.imdb.com/title/tt0259945/'
p1688
aS'http://www.imdb.com/title/tt0037905/'
p1689
aS'http://www.imdb.com/title/tt1541057/'
p1690
aS'http://www.imdb.com/title/tt0125037/'
p1691
aS'http://www.imdb.com/title/tt0342179/'
p1692
aS'http://www.imdb.com/title/tt0092752/'
p1693
aS'http://www.imdb.com/title/tt4766078/'
p1694
aS'http://www.imdb.com/title/tt4641736/'
p1695
aS'http://www.imdb.com/title/tt2056607/'
p1696
aS'http://www.imdb.com/title/tt0066783/'
p1697
aS'http://www.imdb.com/title/tt2075199/'
p1698
aS'http://www.imdb.com/title/tt2327462/'
p1699
aS'http://www.imdb.com/title/tt0324572/'
p1700
aS'http://www.imdb.com/title/tt0328832/'
p1701
aS'http://www.imdb.com/title/tt3884424/'
p1702
aS'http://www.imdb.com/title/tt2442028/'
p1703
aS'http://www.imdb.com/title/tt0054631/'
p1704
aS'http://www.imdb.com/title/tt0342701/'
p1705
aS'http://www.imdb.com/title/tt0218606/'
p1706
aS'http://www.imdb.com/title/tt2358913/'
p1707
aS'http://www.imdb.com/title/tt4428398/'
p1708
aS'http://www.imdb.com/title/tt1563776/'
p1709
aS'http://www.imdb.com/title/tt1844786/'
p1710
aS'http://www.imdb.com/title/tt0132528/'
p1711
aS'http://www.imdb.com/title/tt3511362/'
p1712
aS'http://www.imdb.com/title/tt1872871/'
p1713
aS'http://www.imdb.com/title/tt0327084/'
p1714
aS'http://www.imdb.com/title/tt0115581/'
p1715
aS'http://www.imdb.com/title/tt1219342/'
p1716
aS'http://www.imdb.com/title/tt1460798/'
p1717
aS'http://www.imdb.com/title/tt0219231/'
p1718
aS'http://www.imdb.com/title/tt0253870/'
p1719
aS'http://www.imdb.com/title/tt0217616/'
p1720
aS'http://www.imdb.com/title/tt0377981/'
p1721
aS'http://www.imdb.com/title/tt1072747/'
p1722
aS'http://www.imdb.com/title/tt1709812/'
p1723
aS'http://www.imdb.com/title/tt0102802/'
p1724
aS'http://www.imdb.com/title/tt1147526/'
p1725
aS'http://www.imdb.com/title/tt1135522/'
p1726
aS'http://www.imdb.com/title/tt1294710/'
p1727
aS'http://www.imdb.com/title/tt4668834/'
p1728
aS'http://www.imdb.com/title/tt1930285/'
p1729
aS'http://www.imdb.com/title/tt0303318/'
p1730
aS'http://www.imdb.com/title/tt1844036/'
p1731
aS'http://www.imdb.com/title/tt0275277/'
p1732
aS'http://www.imdb.com/title/tt2576852/'
p1733
aS'http://www.imdb.com/title/tt0294674/'
p1734
aS'http://www.imdb.com/title/tt0238319/'
p1735
aS'http://www.imdb.com/title/tt0131629/'
p1736
aS'http://www.imdb.com/title/tt1887784/'
p1737
aS'http://www.imdb.com/title/tt0430403/'
p1738
aS'http://www.imdb.com/title/tt4767910/'
p1739
aS'http://www.imdb.com/title/tt0103639/'
p1740
aS'http://www.imdb.com/title/tt1520392/'
p1741
aS'http://www.imdb.com/title/tt0442247/'
p1742
aS'http://www.imdb.com/title/tt0353803/'
p1743
aS'http://www.imdb.com/title/tt0357545/'
p1744
aS'http://www.imdb.com/title/tt0437198/'
p1745
aS'http://www.imdb.com/title/tt3745954/'
p1746
aS'http://www.imdb.com/title/tt0488836/'
p1747
aS'http://www.imdb.com/title/tt0097067/'
p1748
aS'http://www.imdb.com/title/tt1692083/'
p1749
aS'http://www.imdb.com/title/tt0206571/'
p1750
aS'http://www.imdb.com/title/tt0465967/'
p1751
aS'http://www.imdb.com/title/tt1709801/'
p1752
aS'http://www.imdb.com/title/tt4831682/'
p1753
aS'http://www.imdb.com/title/tt0288549/'
p1754
aS'http://www.imdb.com/title/tt0372588/'
p1755
aS'http://www.imdb.com/title/tt3249118/'
p1756
aS'http://www.imdb.com/title/tt0284094/'
p1757
aS'http://www.imdb.com/title/tt0356024/'
p1758
aS'http://www.imdb.com/title/tt0037730/'
p1759
aS'http://www.imdb.com/title/tt2328505/'
p1760
aS'http://www.imdb.com/title/tt0298337/'
p1761
aS'http://www.imdb.com/title/tt0047930/'
p1762
aS'http://www.imdb.com/title/tt0202452/'
p1763
aS'http://www.imdb.com/title/tt0405469/'
p1764
aS'http://www.imdb.com/title/tt3749216/'
p1765
aS'http://www.imdb.com/title/tt0133240/'
p1766
aS'http://www.imdb.com/title/tt1481363/'
p1767
aS'http://www.imdb.com/title/tt3223948/'
p1768
aS'http://www.imdb.com/title/tt0308220/'
p1769
aS'http://www.imdb.com/title/tt1189083/'
p1770
aS'http://www.imdb.com/title/tt0462699/'
p1771
aS'http://www.imdb.com/title/tt0083701/'
p1772
aS'http://www.imdb.com/title/tt0215919/'
p1773
aS'http://www.imdb.com/title/tt4898940/'
p1774
aS'http://www.imdb.com/title/tt3880898/'
p1775
aS'http://www.imdb.com/title/tt0095525/'
p1776
aS'http://www.imdb.com/title/tt1649349/'
p1777
aS'http://www.imdb.com/title/tt1806816/'
p1778
aS'http://www.imdb.com/title/tt0061369/'
p1779
aS'http://www.imdb.com/title/tt1920939/'
p1780
aS'http://www.imdb.com/title/tt0038718/'
p1781
aS'http://www.imdb.com/title/tt3847328/'
p1782
aS'http://www.imdb.com/title/tt0091862/'
p1783
aS'http://www.imdb.com/title/tt3896100/'
p1784
aS'http://www.imdb.com/title/tt1260351/'
p1785
aS'http://www.imdb.com/title/tt3758690/'
p1786
aS'http://www.imdb.com/title/tt2220674/'
p1787
aS'http://www.imdb.com/title/tt0262333/'
p1788
aS'http://www.imdb.com/title/tt1941509/'
p1789
aS'http://www.imdb.com/title/tt1121794/'
p1790
aS'http://www.imdb.com/title/tt3661342/'
p1791
aS'http://www.imdb.com/title/tt3747944/'
p1792
aS'http://www.imdb.com/title/tt2660104/'
p1793
aS'http://www.imdb.com/title/tt0140703/'
p1794
aS'http://www.imdb.com/title/tt0382932/'
p1795
aS'http://www.imdb.com/title/tt0196547/'
p1796
aS'http://www.imdb.com/title/tt1537726/'
p1797
aS'http://www.imdb.com/title/tt0142243/'
p1798
aS'http://www.imdb.com/title/tt0253729/'
p1799
aS'http://www.imdb.com/title/tt0827498/'
p1800
aS'http://www.imdb.com/title/tt1171264/'
p1801
aS'http://www.imdb.com/title/tt2506390/'
p1802
aS'http://www.imdb.com/title/tt0452860/'
p1803
aS'http://www.imdb.com/title/tt4885924/'
p1804
aS'http://www.imdb.com/title/tt0932930/'
p1805
aS'http://www.imdb.com/title/tt0156945/'
p1806
aS'http://www.imdb.com/title/tt1135485/'
p1807
aS'http://www.imdb.com/title/tt2573198/'
p1808
aS'http://www.imdb.com/title/tt0323642/'
p1809
aS'http://www.imdb.com/title/tt4773054/'
p1810
aS'http://www.imdb.com/title/tt1679332/'
p1811
aS'http://www.imdb.com/title/tt1711438/'
p1812
aS'http://www.imdb.com/title/tt1845789/'
p1813
aS'http://www.imdb.com/title/tt1532395/'
p1814
aS'http://www.imdb.com/title/tt0100339/'
p1815
aS'http://www.imdb.com/title/tt4642964/'
p1816
aS'http://www.imdb.com/title/tt1436562/'
p1817
aS'http://www.imdb.com/title/tt1777620/'
p1818
aS'http://www.imdb.com/title/tt3255606/'
p1819
aS'http://www.imdb.com/title/tt0224114/'
p1820
aS'http://www.imdb.com/title/tt0260830/'
p1821
aS'http://www.imdb.com/title/tt0259285/'
p1822
aS'http://www.imdb.com/title/tt4920090/'
p1823
aS'http://www.imdb.com/title/tt2106600/'
p1824
aS'http://www.imdb.com/title/tt0145646/'
p1825
aS'http://www.imdb.com/title/tt0096209/'
p1826
aS'http://www.imdb.com/title/tt0780521/'
p1827
aS'http://www.imdb.com/title/tt5004766/'
p1828
aS'http://www.imdb.com/title/tt4730838/'
p1829
aS'http://www.imdb.com/title/tt3197486/'
p1830
aS'http://www.imdb.com/title/tt1492851/'
p1831
aS'http://www.imdb.com/title/tt1822239/'
p1832
aS'http://www.imdb.com/title/tt2908228/'
p1833
aS'http://www.imdb.com/title/tt2789674/'
p1834
aS'http://www.imdb.com/title/tt4735924/'
p1835
aS'http://www.imdb.com/title/tt1508662/'
p1836
aS'http://www.imdb.com/title/tt0379945/'
p1837
aS'http://www.imdb.com/title/tt1606599/'
p1838
aS'http://www.imdb.com/title/tt0439123/'
p1839
aS'http://www.imdb.com/title/tt1978567/'
p1840
aS'http://www.imdb.com/title/tt2339505/'
p1841
aS'http://www.imdb.com/title/tt2627630/'
p1842
aS'http://www.imdb.com/title/tt1270478/'
p1843
aS'http://www.imdb.com/title/tt0084503/'
p1844
aS'http://www.imdb.com/title/tt0094939/'
p1845
aS'http://www.imdb.com/title/tt3823912/'
p1846
aS'http://www.imdb.com/title/tt2752656/'
p1847
aS'http://www.imdb.com/title/tt2104985/'
p1848
aS'http://www.imdb.com/title/tt4559258/'
p1849
aS'http://www.imdb.com/title/tt2243469/'
p1850
aS'http://www.imdb.com/title/tt1869677/'
p1851
aS'http://www.imdb.com/title/tt0271527/'
p1852
aS'http://www.imdb.com/title/tt1873576/'
p1853
aS'http://www.imdb.com/title/tt2948356/'
p1854
aS'http://www.imdb.com/title/tt0435202/'
p1855
aS'http://www.imdb.com/title/tt2411128/'
p1856
aS'http://www.imdb.com/title/tt0120630/'
p1857
aS'http://www.imdb.com/title/tt2353722/'
p1858
aS'http://www.imdb.com/title/tt0064561/'
p1859
aS'http://www.imdb.com/title/tt3848896/'
p1860
aS'http://www.imdb.com/title/tt2789530/'
p1861
aS'http://www.imdb.com/title/tt0150844/'
p1862
aS'http://www.imdb.com/title/tt0233001/'
p1863
aS'http://www.imdb.com/title/tt4219130/'
p1864
aS'http://www.imdb.com/title/tt4083096/'
p1865
aS'http://www.imdb.com/title/tt1853614/'
p1866
aS'http://www.imdb.com/title/tt1418201/'
p1867
aS'http://www.imdb.com/title/tt0904040/'
p1868
aS'http://www.imdb.com/title/tt0177422/'
p1869
aS'http://www.imdb.com/title/tt0145694/'
p1870
aS'http://www.imdb.com/title/tt3672130/'
p1871
aS'http://www.imdb.com/title/tt0037322/'
p1872
aS'http://www.imdb.com/title/tt1207645/'
p1873
aS'http://www.imdb.com/title/tt3739130/'
p1874
aS'http://www.imdb.com/title/tt2483260/'
p1875
aS'http://www.imdb.com/title/tt2375629/'
p1876
aS'http://www.imdb.com/title/tt0213292/'
p1877
aS'http://www.imdb.com/title/tt0445683/'
p1878
aS'http://www.imdb.com/title/tt1401255/'
p1879
aS'http://www.imdb.com/title/tt0212261/'
p1880
aS'http://www.imdb.com/title/tt4283922/'
p1881
aS'http://www.imdb.com/title/tt4208304/'
p1882
aS'http://www.imdb.com/title/tt3159254/'
p1883
aS'http://www.imdb.com/title/tt4049534/'
p1884
aS'http://www.imdb.com/title/tt1186219/'
p1885
aS'http://www.imdb.com/title/tt1985949/'
p1886
aS'http://www.imdb.com/title/tt1315980/'
p1887
aS'http://www.imdb.com/title/tt0313990/'
p1888
aS'http://www.imdb.com/title/tt3606752/'
p1889
aS'http://www.imdb.com/title/tt1639826/'
p1890
aS'http://www.imdb.com/title/tt3308710/'
p1891
aS'http://www.imdb.com/title/tt0271872/'
p1892
aS'http://www.imdb.com/title/tt1226251/'
p1893
aS'http://www.imdb.com/title/tt0209058/'
p1894
aS'http://www.imdb.com/title/tt2452042/'
p1895
aS'http://www.imdb.com/title/tt0086160/'
p1896
aS'http://www.imdb.com/title/tt0422875/'
p1897
aS'http://www.imdb.com/title/tt1714907/'
p1898
aS'http://www.imdb.com/title/tt3177056/'
p1899
aS'http://www.imdb.com/title/tt3469046/'
p1900
aS'http://www.imdb.com/title/tt0218938/'
p1901
aS'http://www.imdb.com/title/tt0969332/'
p1902
aS'http://www.imdb.com/title/tt1476250/'
p1903
aS'http://www.imdb.com/title/tt0446701/'
p1904
aS'http://www.imdb.com/title/tt2630930/'
p1905
aS'http://www.imdb.com/title/tt4488876/'
p1906
aS'http://www.imdb.com/title/tt2305025/'
p1907
aS'http://www.imdb.com/title/tt1212022/'
p1908
aS'http://www.imdb.com/title/tt0014140/'
p1909
aS'http://www.imdb.com/title/tt4008950/'
p1910
aS'http://www.imdb.com/title/tt1401235/'
p1911
aS'http://www.imdb.com/title/tt0287547/'
p1912
aS'http://www.imdb.com/title/tt0272183/'
p1913
aS'http://www.imdb.com/title/tt3653650/'
p1914
aS'http://www.imdb.com/title/tt0116114/'
p1915
aS'http://www.imdb.com/title/tt4876468/'
p1916
aS'http://www.imdb.com/title/tt0038149/'
p1917
aS'http://www.imdb.com/title/tt1796619/'
p1918
aS'http://www.imdb.com/title/tt0213203/'
p1919
aS'http://www.imdb.com/title/tt0307456/'
p1920
aS'http://www.imdb.com/title/tt3529342/'
p1921
aS'http://www.imdb.com/title/tt0158628/'
p1922
aS'http://www.imdb.com/title/tt1119194/'
p1923
aS'http://www.imdb.com/title/tt0037203/'
p1924
aS'http://www.imdb.com/title/tt0076931/'
p1925
aS'http://www.imdb.com/title/tt0084060/'
p1926
aS'http://www.imdb.com/title/tt0297753/'
p1927
aS'http://www.imdb.com/title/tt3945666/'
p1928
aS'http://www.imdb.com/title/tt0142237/'
p1929
aS'http://www.imdb.com/title/tt1545319/'
p1930
aS'http://www.imdb.com/title/tt2380534/'
p1931
aS'http://www.imdb.com/title/tt2048804/'
p1932
aS'http://www.imdb.com/title/tt1726286/'
p1933
aS'http://www.imdb.com/title/tt0120677/'
p1934
aS'http://www.imdb.com/title/tt1869679/'
p1935
aS'http://www.imdb.com/title/tt0836682/'
p1936
aS'http://www.imdb.com/title/tt0338178/'
p1937
aS'http://www.imdb.com/title/tt0473658/'
p1938
aS'http://www.imdb.com/title/tt0310929/'
p1939
aS'http://www.imdb.com/title/tt1865505/'
p1940
aS'http://www.imdb.com/title/tt1977865/'
p1941
aS'http://www.imdb.com/title/tt3633118/'
p1942
aS'http://www.imdb.com/title/tt0802983/'
p1943
aS'http://www.imdb.com/title/tt3740996/'
p1944
aS'http://www.imdb.com/title/tt0113429/'
p1945
aS'http://www.imdb.com/title/tt1748199/'
p1946
aS'http://www.imdb.com/title/tt1745702/'
p1947
aS'http://www.imdb.com/title/tt1716778/'
p1948
aS'http://www.imdb.com/title/tt3576728/'
p1949
aS'http://www.imdb.com/title/tt0310111/'
p1950
aS'http://www.imdb.com/title/tt2979978/'
p1951
aS'http://www.imdb.com/title/tt0142239/'
p1952
aS'http://www.imdb.com/title/tt0180390/'
p1953
aS'http://www.imdb.com/title/tt1462756/'
p1954
aS'http://www.imdb.com/title/tt0823511/'
p1955
aS'http://www.imdb.com/title/tt3324810/'
p1956
aS'http://www.imdb.com/title/tt0096869/'
p1957
aS'http://www.imdb.com/title/tt1283926/'
p1958
aS'http://www.imdb.com/title/tt0382868/'
p1959
aS'http://www.imdb.com/title/tt0374280/'
p1960
aS'http://www.imdb.com/title/tt0112513/'
p1961
aS'http://www.imdb.com/title/tt0373818/'
p1962
aS'http://www.imdb.com/title/tt0338245/'
p1963
aS'http://www.imdb.com/title/tt0142851/'
p1964
aS'http://www.imdb.com/title/tt0098189/'
p1965
aS'http://www.imdb.com/title/tt0176694/'
p1966
aS'http://www.imdb.com/title/tt2411590/'
p1967
aS'http://www.imdb.com/title/tt2336213/'
p1968
aS'http://www.imdb.com/title/tt0134187/'
p1969
aS'http://www.imdb.com/title/tt2033933/'
p1970
aS'http://www.imdb.com/title/tt1707786/'
p1971
aS'http://www.imdb.com/title/tt3040230/'
p1972
aS'http://www.imdb.com/title/tt3215618/'
p1973
aS'http://www.imdb.com/title/tt4942202/'
p1974
aS'http://www.imdb.com/title/tt1713475/'
p1975
aS'http://www.imdb.com/title/tt2822672/'
p1976
aS'http://www.imdb.com/title/tt0204704/'
p1977
aS'http://www.imdb.com/title/tt2666388/'
p1978
aS'http://www.imdb.com/title/tt4768656/'
p1979
aS'http://www.imdb.com/title/tt0416908/'
p1980
aS'http://www.imdb.com/title/tt0064560/'
p1981
aS'http://www.imdb.com/title/tt0106421/'
p1982
aS'http://www.imdb.com/title/tt4824274/'
p1983
aS'http://www.imdb.com/title/tt4571742/'
p1984
aS'http://www.imdb.com/title/tt4997844/'
p1985
aS'http://www.imdb.com/title/tt0456978/'
p1986
aS'http://www.imdb.com/title/tt0090065/'
p1987
aS'http://www.imdb.com/title/tt1805326/'
p1988
aS'http://www.imdb.com/title/tt3901826/'
p1989
aS'http://www.imdb.com/title/tt2427458/'
p1990
aS'http://www.imdb.com/title/tt2350500/'
p1991
aS'http://www.imdb.com/title/tt0127745/'
p1992
aS'http://www.imdb.com/title/tt1446716/'
p1993
aS'http://www.imdb.com/title/tt0049847/'
p1994
aS'http://www.imdb.com/title/tt3895474/'
p1995
aS'http://www.imdb.com/title/tt0064956/'
p1996
aS'http://www.imdb.com/title/tt2281336/'
p1997
aS'http://www.imdb.com/title/tt2425618/'
p1998
aS'http://www.imdb.com/title/tt0395970/'
p1999
aS'http://www.imdb.com/title/tt0252025/'
p2000
aS'http://www.imdb.com/title/tt0364491/'
p2001
aS'http://www.imdb.com/title/tt2165561/'
p2002
aS'http://www.imdb.com/title/tt3950500/'
p2003
aS'http://www.imdb.com/title/tt0312941/'
p2004
aS'http://www.imdb.com/title/tt3871950/'
p2005
aS'http://www.imdb.com/title/tt1225899/'
p2006
aS'http://www.imdb.com/title/tt1746196/'
p2007
aS'http://www.imdb.com/title/tt3914106/'
p2008
aS'http://www.imdb.com/title/tt1493228/'
p2009
aS'http://www.imdb.com/title/tt0063668/'
p2010
aS'http://www.imdb.com/title/tt0327660/'
p2011
aS'http://www.imdb.com/title/tt0133930/'
p2012
aS'http://www.imdb.com/title/tt0385907/'
p2013
aS'http://www.imdb.com/title/tt0183654/'
p2014
aS'http://www.imdb.com/title/tt0226552/'
p2015
aS'http://www.imdb.com/title/tt2231095/'
p2016
aS'http://www.imdb.com/title/tt1147527/'
p2017
aS'http://www.imdb.com/title/tt1398425/'
p2018
aS'http://www.imdb.com/title/tt0145743/'
p2019
aS'http://www.imdb.com/title/tt3407996/'
p2020
aS'http://www.imdb.com/title/tt2859246/'
p2021
aS'http://www.imdb.com/title/tt5006214/'
p2022
aS'http://www.imdb.com/title/tt1844787/'
p2023
aS'http://www.imdb.com/title/tt4818944/'
p2024
aS'http://www.imdb.com/title/tt0086538/'
p2025
aS'http://www.imdb.com/title/tt0120691/'
p2026
aS'http://www.imdb.com/title/tt0431684/'
p2027
aS'http://www.imdb.com/title/tt0145717/'
p2028
aS'http://www.imdb.com/title/tt1049406/'
p2029
aS'http://www.imdb.com/title/tt0837562/'
p2030
aS'http://www.imdb.com/title/tt4656772/'
p2031
aS'http://www.imdb.com/title/tt3468298/'
p2032
aS'http://www.imdb.com/title/tt0438097/'
p2033
aS'http://www.imdb.com/title/tt0259974/'
p2034
aS'http://www.imdb.com/title/tt0146311/'
p2035
aS'http://www.imdb.com/title/tt0381971/'
p2036
aS'http://www.imdb.com/title/tt1155696/'
p2037
aS'http://www.imdb.com/title/tt0140349/'
p2038
aS'http://www.imdb.com/title/tt3347120/'
p2039
aS'http://www.imdb.com/title/tt3579524/'
p2040
aS'http://www.imdb.com/title/tt1796564/'
p2041
aS'http://www.imdb.com/title/tt1291055/'
p2042
aS'http://www.imdb.com/title/tt0189231/'
p2043
aS'http://www.imdb.com/title/tt0143286/'
p2044
aS'http://www.imdb.com/title/tt1735462/'
p2045
aS'http://www.imdb.com/title/tt0357450/'
p2046
aS'http://www.imdb.com/title/tt2210498/'
p2047
aS'http://www.imdb.com/title/tt1433540/'
p2048
aS'http://www.imdb.com/title/tt0323469/'
p2049
aS'http://www.imdb.com/title/tt0092054/'
p2050
aS'http://www.imdb.com/title/tt0284075/'
p2051
aS'http://www.imdb.com/title/tt3438478/'
p2052
aS'http://www.imdb.com/title/tt0030636/'
p2053
aS'http://www.imdb.com/title/tt0145864/'
p2054
aS'http://www.imdb.com/title/tt1690483/'
p2055
aS'http://www.imdb.com/title/tt1038033/'
p2056
aS'http://www.imdb.com/title/tt0344854/'
p2057
aS'http://www.imdb.com/title/tt0166813/'
p2058
aS'http://www.imdb.com/title/tt3438202/'
p2059
aS'http://www.imdb.com/title/tt0334205/'
p2060
aS'http://www.imdb.com/title/tt0780660/'
p2061
aS'http://www.imdb.com/title/tt0211065/'
p2062
aS'http://www.imdb.com/title/tt1355638/'
p2063
aS'http://www.imdb.com/title/tt0224087/'
p2064
aS'http://www.imdb.com/title/tt0115509/'
p2065
aS'http://www.imdb.com/title/tt4641882/'
p2066
aS'http://www.imdb.com/title/tt4642966/'
p2067
aS'http://www.imdb.com/title/tt2243275/'
p2068
aS'http://www.imdb.com/title/tt0843358/'
p2069
aS'http://www.imdb.com/title/tt1071815/'
p2070
aS'http://www.imdb.com/title/tt0348878/'
p2071
aS'http://www.imdb.com/title/tt0230426/'
p2072
aS'http://www.imdb.com/title/tt0439533/'
p2073
aS'http://www.imdb.com/title/tt3075214/'
p2074
aS'http://www.imdb.com/title/tt0374248/'
p2075
aS'http://www.imdb.com/title/tt0294448/'
p2076
aS'http://www.imdb.com/title/tt3712718/'
p2077
aS'http://www.imdb.com/title/tt2400433/'
p2078
aS'http://www.imdb.com/title/tt1572781/'
p2079
aS'http://www.imdb.com/title/tt0475998/'
p2080
aS'http://www.imdb.com/title/tt0208502/'
p2081
aS'http://www.imdb.com/title/tt4776994/'
p2082
aS'http://www.imdb.com/title/tt0339334/'
p2083
aS'http://www.imdb.com/title/tt2380283/'
p2084
aS'http://www.imdb.com/title/tt0166227/'
p2085
aS'http://www.imdb.com/title/tt0037731/'
p2086
aS'http://www.imdb.com/title/tt4557900/'
p2087
aS'http://www.imdb.com/title/tt2412064/'
p2088
aS'http://www.imdb.com/title/tt0259308/'
p2089
aS'http://www.imdb.com/title/tt2069921/'
p2090
aS'http://www.imdb.com/title/tt3898504/'
p2091
aS'http://www.imdb.com/title/tt0023648/'
p2092
aS'http://www.imdb.com/title/tt0398237/'
p2093
aS'http://www.imdb.com/title/tt3500764/'
p2094
aS'http://www.imdb.com/title/tt0359784/'
p2095
aS'http://www.imdb.com/title/tt1593692/'
p2096
aS'http://www.imdb.com/title/tt1077274/'
p2097
aS'http://www.imdb.com/title/tt0041611/'
p2098
aS'http://www.imdb.com/title/tt0276465/'
p2099
aS'http://www.imdb.com/title/tt0172633/'
p2100
aS'http://www.imdb.com/title/tt4579020/'
p2101
aS'http://www.imdb.com/title/tt0122494/'
p2102
aS'http://www.imdb.com/title/tt4685554/'
p2103
aS'http://www.imdb.com/title/tt2943352/'
p2104
aS'http://www.imdb.com/title/tt2773420/'
p2105
aS'http://www.imdb.com/title/tt0146253/'
p2106
aS'http://www.imdb.com/title/tt0127333/'
p2107
aS'http://www.imdb.com/title/tt2967856/'
p2108
aS'http://www.imdb.com/title/tt3777936/'
p2109
aS'http://www.imdb.com/title/tt2141749/'
p2110
aS'http://www.imdb.com/title/tt1172203/'
p2111
aS'http://www.imdb.com/title/tt0106364/'
p2112
aS'http://www.imdb.com/title/tt0040580/'
p2113
aS'http://www.imdb.com/title/tt0498755/'
p2114
aS'http://www.imdb.com/title/tt2836140/'
p2115
aS'http://www.imdb.com/title/tt0443771/'
p2116
aS'http://www.imdb.com/title/tt0493306/'
p2117
aS'http://www.imdb.com/title/tt4955564/'
p2118
aS'http://www.imdb.com/title/tt1189081/'
p2119
aS'http://www.imdb.com/title/tt2160331/'
p2120
aS'http://www.imdb.com/title/tt1646926/'
p2121
aS'http://www.imdb.com/title/tt1217213/'
p2122
aS'http://www.imdb.com/title/tt3918368/'
p2123
aS'http://www.imdb.com/title/tt3129656/'
p2124
aS'http://www.imdb.com/title/tt2318440/'
p2125
aS'http://www.imdb.com/title/tt1954293/'
p2126
aS'http://www.imdb.com/title/tt2551566/'
p2127
aS'http://www.imdb.com/title/tt0139661/'
p2128
aS'http://www.imdb.com/title/tt1846607/'
p2129
aS'http://www.imdb.com/title/tt0082679/'
p2130
aS'http://www.imdb.com/title/tt1059812/'
p2131
aS'http://www.imdb.com/title/tt4719118/'
p2132
aS'http://www.imdb.com/title/tt0099733/'
p2133
aS'http://www.imdb.com/title/tt0109791/'
p2134
aS'http://www.imdb.com/title/tt3984234/'
p2135
aS'http://www.imdb.com/title/tt3638542/'
p2136
aS'http://www.imdb.com/title/tt4330400/'
p2137
aS'http://www.imdb.com/title/tt1321862/'
p2138
aS'http://www.imdb.com/title/tt1190545/'
p2139
aS'http://www.imdb.com/title/tt0189973/'
p2140
aS'http://www.imdb.com/title/tt2108651/'
p2141
aS'http://www.imdb.com/title/tt4628826/'
p2142
aS'http://www.imdb.com/title/tt2953050/'
p2143
aS'http://www.imdb.com/title/tt2114454/'
p2144
aS'http://www.imdb.com/title/tt0342947/'
p2145
aS'http://www.imdb.com/title/tt0454561/'
p2146
aS'http://www.imdb.com/title/tt3159278/'
p2147
aS'http://www.imdb.com/title/tt0419704/'
p2148
aS'http://www.imdb.com/title/tt1374985/'
p2149
aS'http://www.imdb.com/title/tt0792978/'
p2150
aS'http://www.imdb.com/title/tt0146129/'
p2151
aS'http://www.imdb.com/title/tt0217306/'
p2152
aS'http://www.imdb.com/title/tt4085184/'
p2153
aS'http://www.imdb.com/title/tt0093251/'
p2154
aS'http://www.imdb.com/title/tt1677561/'
p2155
aS'http://www.imdb.com/title/tt2592484/'
p2156
aS'http://www.imdb.com/title/tt0266230/'
p2157
aS'http://www.imdb.com/title/tt3460724/'
p2158
aS'http://www.imdb.com/title/tt1098199/'
p2159
aS'http://www.imdb.com/title/tt0104604/'
p2160
aS'http://www.imdb.com/title/tt4970552/'
p2161
aS'http://www.imdb.com/title/tt3767066/'
p2162
aS'http://www.imdb.com/title/tt4968090/'
p2163
aS'http://www.imdb.com/title/tt2017020/'
p2164
aS'http://www.imdb.com/title/tt0111419/'
p2165
aS'http://www.imdb.com/title/tt3181400/'
p2166
aS'http://www.imdb.com/title/tt2291794/'
p2167
aS'http://www.imdb.com/title/tt3293808/'
p2168
aS'http://www.imdb.com/title/tt4919442/'
p2169
aS'http://www.imdb.com/title/tt1442223/'
p2170
aS'http://www.imdb.com/title/tt2262227/'
p2171
aS'http://www.imdb.com/title/tt0282708/'
p2172
aS'http://www.imdb.com/title/tt0213268/'
p2173
aS'http://www.imdb.com/title/tt4209820/'
p2174
aS'http://www.imdb.com/title/tt2296044/'
p2175
aS'http://www.imdb.com/title/tt1458172/'
p2176
aS'http://www.imdb.com/title/tt1160937/'
p2177
aS'http://www.imdb.com/title/tt0196911/'
p2178
aS'http://www.imdb.com/title/tt1499213/'
p2179
aS'http://www.imdb.com/title/tt0259246/'
p2180
aS'http://www.imdb.com/title/tt4986230/'
p2181
aS'http://www.imdb.com/title/tt0120713/'
p2182
aS'http://www.imdb.com/title/tt0055150/'
p2183
aS'http://www.imdb.com/title/tt2462452/'
p2184
aS'http://www.imdb.com/title/tt1388333/'
p2185
aS'http://www.imdb.com/title/tt0296504/'
p2186
aS'http://www.imdb.com/title/tt1537314/'
p2187
aS'http://www.imdb.com/title/tt3011816/'
p2188
aS'http://www.imdb.com/title/tt0452039/'
p2189
aS'http://www.imdb.com/title/tt0284587/'
p2190
aS'http://www.imdb.com/title/tt0101583/'
p2191
aS'http://www.imdb.com/title/tt0422702/'
p2192
aS'http://www.imdb.com/title/tt3712490/'
p2193
aS'http://www.imdb.com/title/tt1519364/'
p2194
aS'http://www.imdb.com/title/tt1863338/'
p2195
aS'http://www.imdb.com/title/tt0092916/'
p2196
aS'http://www.imdb.com/title/tt0923811/'
p2197
aS'http://www.imdb.com/title/tt1059950/'
p2198
aS'http://www.imdb.com/title/tt0113234/'
p2199
aS'http://www.imdb.com/title/tt0050987/'
p2200
aS'http://www.imdb.com/title/tt0451769/'
p2201
aS'http://www.imdb.com/title/tt1339302/'
p2202
aS'http://www.imdb.com/title/tt0830199/'
p2203
aS'http://www.imdb.com/title/tt2278518/'
p2204
aS'http://www.imdb.com/title/tt1691917/'
p2205
aS'http://www.imdb.com/title/tt4994884/'
p2206
aS'http://www.imdb.com/title/tt0253848/'
p2207
aS'http://www.imdb.com/title/tt2343130/'
p2208
aS'http://www.imdb.com/title/tt1407052/'
p2209
aS'http://www.imdb.com/title/tt1492806/'
p2210
aS'http://www.imdb.com/title/tt0300227/'
p2211
aS'http://www.imdb.com/title/tt2085930/'
p2212
aS'http://www.imdb.com/title/tt0169899/'
p2213
aS'http://www.imdb.com/title/tt2343441/'
p2214
aS'http://www.imdb.com/title/tt0137201/'
p2215
aS'http://www.imdb.com/title/tt0388130/'
p2216
aS'http://www.imdb.com/title/tt2791442/'
p2217
aS'http://www.imdb.com/title/tt2057399/'
p2218
aS'http://www.imdb.com/title/tt2491648/'
p2219
aS'http://www.imdb.com/title/tt0131472/'
p2220
aS'http://www.imdb.com/title/tt0086094/'
p2221
aS'http://www.imdb.com/title/tt0491646/'
p2222
aS'http://www.imdb.com/title/tt1442543/'
p2223
aS'http://www.imdb.com/title/tt0074539/'
p2224
aS'http://www.imdb.com/title/tt4794852/'
p2225
aS'http://www.imdb.com/title/tt0910970/'
p2226
aS'http://www.imdb.com/title/tt0145672/'
p2227
aS'http://www.imdb.com/title/tt0082009/'
p2228
aS'http://www.imdb.com/title/tt2390339/'
p2229
aS'http://www.imdb.com/title/tt0318736/'
p2230
aS'http://www.imdb.com/title/tt2533166/'
p2231
aS'http://www.imdb.com/title/tt0389790/'
p2232
aS'http://www.imdb.com/title/tt4788602/'
p2233
aS'http://www.imdb.com/title/tt0145710/'
p2234
aS'http://www.imdb.com/title/tt0202977/'
p2235
aS'http://www.imdb.com/title/tt0138067/'
p2236
aS'http://www.imdb.com/title/tt0161122/'
p2237
aS'http://www.imdb.com/title/tt3293420/'
p2238
aS'http://www.imdb.com/title/tt0129411/'
p2239
aS'http://www.imdb.com/title/tt0497397/'
p2240
aS'http://www.imdb.com/title/tt0270410/'
p2241
aS'http://www.imdb.com/title/tt0050410/'
p2242
aS'http://www.imdb.com/title/tt0145650/'
p2243
aS'http://www.imdb.com/title/tt1739212/'
p2244
aS'http://www.imdb.com/title/tt1414518/'
p2245
aS'http://www.imdb.com/title/tt1979388/'
p2246
aS'http://www.imdb.com/title/tt1241721/'
p2247
aS'http://www.imdb.com/title/tt0024840/'
p2248
aS'http://www.imdb.com/title/tt0459959/'
p2249
aS'http://www.imdb.com/title/tt0352312/'
p2250
aS'http://www.imdb.com/title/tt1773768/'
p2251
aS'http://www.imdb.com/title/tt3178174/'
p2252
aS'http://www.imdb.com/title/tt1171260/'
p2253
aS'http://www.imdb.com/title/tt1964540/'
p2254
aS'http://www.imdb.com/title/tt4872210/'
p2255
aS'http://www.imdb.com/title/tt1948563/'
p2256
aS'http://www.imdb.com/title/tt3465710/'
p2257
aS'http://www.imdb.com/title/tt0145941/'
p2258
aS'http://www.imdb.com/title/tt4457910/'
p2259
aS'http://www.imdb.com/title/tt1640109/'
p2260
aS'http://www.imdb.com/title/tt5070094/'
p2261
aS'http://www.imdb.com/title/tt0176697/'
p2262
aS'http://www.imdb.com/title/tt0091584/'
p2263
aS'http://www.imdb.com/title/tt0104009/'
p2264
aS'http://www.imdb.com/title/tt0242851/'
p2265
aS'http://www.imdb.com/title/tt1989523/'
p2266
aS'http://www.imdb.com/title/tt2095004/'
p2267
aS'http://www.imdb.com/title/tt2008534/'
p2268
aS'http://www.imdb.com/title/tt0375141/'
p2269
aS'http://www.imdb.com/title/tt3871940/'
p2270
aS'http://www.imdb.com/title/tt0270224/'
p2271
aS'http://www.imdb.com/title/tt0156534/'
p2272
aS'http://www.imdb.com/title/tt3123864/'
p2273
aS'http://www.imdb.com/title/tt2865766/'
p2274
aS'http://www.imdb.com/title/tt0171048/'
p2275
aS'http://www.imdb.com/title/tt0126669/'
p2276
aS'http://www.imdb.com/title/tt0142666/'
p2277
aS'http://www.imdb.com/title/tt0225604/'
p2278
aS'http://www.imdb.com/title/tt1645129/'
p2279
aS'http://www.imdb.com/title/tt0186449/'
p2280
aS'http://www.imdb.com/title/tt0377119/'
p2281
aS'http://www.imdb.com/title/tt0202287/'
p2282
aS'http://www.imdb.com/title/tt2358911/'
p2283
aS'http://www.imdb.com/title/tt0196839/'
p2284
aS'http://www.imdb.com/title/tt4587956/'
p2285
aS'http://www.imdb.com/title/tt2876446/'
p2286
aS'http://www.imdb.com/title/tt2126385/'
p2287
aS'http://www.imdb.com/title/tt0188404/'
p2288
aS'http://www.imdb.com/title/tt0063823/'
p2289
aS'http://www.imdb.com/title/tt1264885/'
p2290
aS'http://www.imdb.com/title/tt0293849/'
p2291
aS'http://www.imdb.com/title/tt1912530/'
p2292
aS'http://www.imdb.com/title/tt0341601/'
p2293
aS'http://www.imdb.com/title/tt1748032/'
p2294
aS'http://www.imdb.com/title/tt0163514/'
p2295
aS'http://www.imdb.com/title/tt1786430/'
p2296
aS'http://www.imdb.com/title/tt0988982/'
p2297
aS'http://www.imdb.com/title/tt2320924/'
p2298
aS'http://www.imdb.com/title/tt2950510/'
p2299
aS'http://www.imdb.com/title/tt3837248/'
p2300
aS'http://www.imdb.com/title/tt4264554/'
p2301
aS'http://www.imdb.com/title/tt0020825/'
p2302
aS'http://www.imdb.com/title/tt0415906/'
p2303
aS'http://www.imdb.com/title/tt1764578/'
p2304
aS'http://www.imdb.com/title/tt0145801/'
p2305
aS'http://www.imdb.com/title/tt0213159/'
p2306
aS'http://www.imdb.com/title/tt0021309/'
p2307
aS'http://www.imdb.com/title/tt0146285/'
p2308
aS'http://www.imdb.com/title/tt0386820/'
p2309
aS'http://www.imdb.com/title/tt0366621/'
p2310
aS'http://www.imdb.com/title/tt1395050/'
p2311
aS'http://www.imdb.com/title/tt4844146/'
p2312
aS'http://www.imdb.com/title/tt1660319/'
p2313
aS'http://www.imdb.com/title/tt0087026/'
p2314
aS'http://www.imdb.com/title/tt0067280/'
p2315
aS'http://www.imdb.com/title/tt3279464/'
p2316
aS'http://www.imdb.com/title/tt0107875/'
p2317
aS'http://www.imdb.com/title/tt0296162/'
p2318
aS'http://www.imdb.com/title/tt0229557/'
p2319
aS'http://www.imdb.com/title/tt0310117/'
p2320
aS'http://www.imdb.com/title/tt1725969/'
p2321
aS'http://www.imdb.com/title/tt1776307/'
p2322
aS'http://www.imdb.com/title/tt0210654/'
p2323
aS'http://www.imdb.com/title/tt0944960/'
p2324
aS'http://www.imdb.com/title/tt1352802/'
p2325
aS'http://www.imdb.com/title/tt2258054/'
p2326
aS'http://www.imdb.com/title/tt0791188/'
p2327
aS'http://www.imdb.com/title/tt1586540/'
p2328
aS'http://www.imdb.com/title/tt1340803/'
p2329
aS'http://www.imdb.com/title/tt0114556/'
p2330
aS'http://www.imdb.com/title/tt3516252/'
p2331
aS'http://www.imdb.com/title/tt0226373/'
p2332
aS'http://www.imdb.com/title/tt0484999/'
p2333
aS'http://www.imdb.com/title/tt4603202/'
p2334
aS'http://www.imdb.com/title/tt4522038/'
p2335
aS'http://www.imdb.com/title/tt0116412/'
p2336
aS'http://www.imdb.com/title/tt0298148/'
p2337
aS'http://www.imdb.com/title/tt0338348/'
p2338
aS'http://www.imdb.com/title/tt1609138/'
p2339
aS'http://www.imdb.com/title/tt3106916/'
p2340
aS'http://www.imdb.com/title/tt1160525/'
p2341
aS'http://www.imdb.com/title/tt1849915/'
p2342
aS'http://www.imdb.com/title/tt0310749/'
p2343
aS'http://www.imdb.com/title/tt4450396/'
p2344
aS'http://www.imdb.com/title/tt3468300/'
p2345
aS'http://www.imdb.com/title/tt1843957/'
p2346
aS'http://www.imdb.com/title/tt0181884/'
p2347
aS'http://www.imdb.com/title/tt1757912/'
p2348
aS'http://www.imdb.com/title/tt4717402/'
p2349
aS'http://www.imdb.com/title/tt4354284/'
p2350
aS'http://www.imdb.com/title/tt1988546/'
p2351
aS'http://www.imdb.com/title/tt0236421/'
p2352
aS'http://www.imdb.com/title/tt1733139/'
p2353
aS'http://www.imdb.com/title/tt0180585/'
p2354
aS'http://www.imdb.com/title/tt0140701/'
p2355
aS'http://www.imdb.com/title/tt2125634/'
p2356
aS'http://www.imdb.com/title/tt4696626/'
p2357
aS'http://www.imdb.com/title/tt0259611/'
p2358
aS'http://www.imdb.com/title/tt3839992/'
p2359
aS'http://www.imdb.com/title/tt0270705/'
p2360
aS'http://www.imdb.com/title/tt0156816/'
p2361
aS'http://www.imdb.com/title/tt0107345/'
p2362
aS'http://www.imdb.com/title/tt1189893/'
p2363
aS'http://www.imdb.com/title/tt0864835/'
p2364
aS'http://www.imdb.com/title/tt1054491/'
p2365
aS'http://www.imdb.com/title/tt3842620/'
p2366
aS'http://www.imdb.com/title/tt0157020/'
p2367
aS'http://www.imdb.com/title/tt4863692/'
p2368
aS'http://www.imdb.com/title/tt0205281/'
p2369
aS'http://www.imdb.com/title/tt2186404/'
p2370
aS'http://www.imdb.com/title/tt0348496/'
p2371
aS'http://www.imdb.com/title/tt1693039/'
p2372
aS'http://www.imdb.com/title/tt4633738/'
p2373
aS'http://www.imdb.com/title/tt2887968/'
p2374
aS'http://www.imdb.com/title/tt0076363/'
p2375
aS'http://www.imdb.com/title/tt2167725/'
p2376
aS'http://www.imdb.com/title/tt0079102/'
p2377
aS'http://www.imdb.com/title/tt0056461/'
p2378
aS'http://www.imdb.com/title/tt4440370/'
p2379
aS'http://www.imdb.com/title/tt0095894/'
p2380
aS'http://www.imdb.com/title/tt0295983/'
p2381
aS'http://www.imdb.com/title/tt0089042/'
p2382
aS'http://www.imdb.com/title/tt0046183/'
p2383
aS'http://www.imdb.com/title/tt0884832/'
p2384
aS'http://www.imdb.com/title/tt1884320/'
p2385
aS'http://www.imdb.com/title/tt4643580/'
p2386
aS'http://www.imdb.com/title/tt1174992/'
p2387
aS'http://www.imdb.com/title/tt0297455/'
p2388
aS'http://www.imdb.com/title/tt0062667/'
p2389
aS'http://www.imdb.com/title/tt1966498/'
p2390
aS'http://www.imdb.com/title/tt0118617/'
p2391
aS'http://www.imdb.com/title/tt2966560/'
p2392
aS'http://www.imdb.com/title/tt0034091/'
p2393
aS'http://www.imdb.com/title/tt0060283/'
p2394
aS'http://www.imdb.com/title/tt2479654/'
p2395
aS'http://www.imdb.com/title/tt1753757/'
p2396
aS'http://www.imdb.com/title/tt4794734/'
p2397
aS'http://www.imdb.com/title/tt3951368/'
p2398
aS'http://www.imdb.com/title/tt2572226/'
p2399
aS'http://www.imdb.com/title/tt3923472/'
p2400
aS'http://www.imdb.com/title/tt0090244/'
p2401
aS'http://www.imdb.com/title/tt0158983/'
p2402
aS'http://www.imdb.com/title/tt4899056/'
p2403
aS'http://www.imdb.com/title/tt0127552/'
p2404
aS'http://www.imdb.com/title/tt0970472/'
p2405
aS'http://www.imdb.com/title/tt1492151/'
p2406
aS'http://www.imdb.com/title/tt4168188/'
p2407
aS'http://www.imdb.com/title/tt1336982/'
p2408
aS'http://www.imdb.com/title/tt1821680/'
p2409
aS'http://www.imdb.com/title/tt0308184/'
p2410
aS'http://www.imdb.com/title/tt1826687/'
p2411
aS'http://www.imdb.com/title/tt0069383/'
p2412
aS'http://www.imdb.com/title/tt1909796/'
p2413
aS'http://www.imdb.com/title/tt0423316/'
p2414
aS'http://www.imdb.com/title/tt4915594/'
p2415
aS'http://www.imdb.com/title/tt1429430/'
p2416
aS'http://www.imdb.com/title/tt0087543/'
p2417
aS'http://www.imdb.com/title/tt3912856/'
p2418
aS'http://www.imdb.com/title/tt0220450/'
p2419
aS'http://www.imdb.com/title/tt1018789/'
p2420
aS'http://www.imdb.com/title/tt2400379/'
p2421
aS'http://www.imdb.com/title/tt2872750/'
p2422
aS'http://www.imdb.com/title/tt3668382/'
p2423
aS'http://www.imdb.com/title/tt0206353/'
p2424
aS'http://www.imdb.com/title/tt0224564/'
p2425
aS'http://www.imdb.com/title/tt1411700/'
p2426
aS'http://www.imdb.com/title/tt4054952/'
p2427
aS'http://www.imdb.com/title/tt2224026/'
p2428
aS'http://www.imdb.com/title/tt0062687/'
p2429
aS'http://www.imdb.com/title/tt2555494/'
p2430
aS'http://www.imdb.com/title/tt4569480/'
p2431
aS'http://www.imdb.com/title/tt4571702/'
p2432
aS'http://www.imdb.com/title/tt0186721/'
p2433
aS'http://www.imdb.com/title/tt1430626/'
p2434
aS'http://www.imdb.com/title/tt2396690/'
p2435
aS'http://www.imdb.com/title/tt3746824/'
p2436
aS'http://www.imdb.com/title/tt0359230/'
p2437
aS'http://www.imdb.com/title/tt0109422/'
p2438
aS'http://www.imdb.com/title/tt1361317/'
p2439
aS'http://www.imdb.com/title/tt1252601/'
p2440
aS'http://www.imdb.com/title/tt2006291/'
p2441
aS'http://www.imdb.com/title/tt1382663/'
p2442
aS'http://www.imdb.com/title/tt2382412/'
p2443
aS'http://www.imdb.com/title/tt3615204/'
p2444
aS'http://www.imdb.com/title/tt2386490/'
p2445
aS'http://www.imdb.com/title/tt0790799/'
p2446
aS'http://www.imdb.com/title/tt0104652/'
p2447
aS'http://www.imdb.com/title/tt0134067/'
p2448
aS'http://www.imdb.com/title/tt2158855/'
p2449
aS'http://www.imdb.com/title/tt0332029/'
p2450
aS'http://www.imdb.com/title/tt4538366/'
p2451
aS'http://www.imdb.com/title/tt4898124/'
p2452
aS'http://www.imdb.com/title/tt0347070/'
p2453
aS'http://www.imdb.com/title/tt0159443/'
p2454
aS'http://www.imdb.com/title/tt0326522/'
p2455
aS'http://www.imdb.com/title/tt0142248/'
p2456
aS'http://www.imdb.com/title/tt0037729/'
p2457
aS'http://www.imdb.com/title/tt2216582/'
p2458
aS'http://www.imdb.com/title/tt2322603/'
p2459
aS'http://www.imdb.com/title/tt2626772/'
p2460
aS'http://www.imdb.com/title/tt0029583/'
p2461
aS'http://www.imdb.com/title/tt0259206/'
p2462
aS'http://www.imdb.com/title/tt1548621/'
p2463
aS'http://www.imdb.com/title/tt0098692/'
p2464
aS'http://www.imdb.com/title/tt0239634/'
p2465
aS'http://www.imdb.com/title/tt3253744/'
p2466
aS'http://www.imdb.com/title/tt2328718/'
p2467
aS'http://www.imdb.com/title/tt2621194/'
p2468
aS'http://www.imdb.com/title/tt1218026/'
p2469
aS'http://www.imdb.com/title/tt0466405/'
p2470
aS'http://www.imdb.com/title/tt0351853/'
p2471
aS'http://www.imdb.com/title/tt2005281/'
p2472
aS'http://www.imdb.com/title/tt3477554/'
p2473
aS'http://www.imdb.com/title/tt2231208/'
p2474
aS'http://www.imdb.com/title/tt0244507/'
p2475
aS'http://www.imdb.com/title/tt4165384/'
p2476
aS'http://www.imdb.com/title/tt0117865/'
p2477
aS'http://www.imdb.com/title/tt1231580/'
p2478
aS'http://www.imdb.com/title/tt4815784/'
p2479
aS'http://www.imdb.com/title/tt1816518/'
p2480
aS'http://www.imdb.com/title/tt0279412/'
p2481
aS'http://www.imdb.com/title/tt1560987/'
p2482
aS'http://www.imdb.com/title/tt0218288/'
p2483
aS'http://www.imdb.com/title/tt3564806/'
p2484
aS'http://www.imdb.com/title/tt1245450/'
p2485
aS'http://www.imdb.com/title/tt1247268/'
p2486
aS'http://www.imdb.com/title/tt0185429/'
p2487
aS'http://www.imdb.com/title/tt1265173/'
p2488
aS'http://www.imdb.com/title/tt2549540/'
p2489
aS'http://www.imdb.com/title/tt0339256/'
p2490
aS'http://www.imdb.com/title/tt0314923/'
p2491
aS'http://www.imdb.com/title/tt0244592/'
p2492
aS'http://www.imdb.com/title/tt2990702/'
p2493
aS'http://www.imdb.com/title/tt4556264/'
p2494
aS'http://www.imdb.com/title/tt1989574/'
p2495
aS'http://www.imdb.com/title/tt1149379/'
p2496
aS'http://www.imdb.com/title/tt0218384/'
p2497
aS'http://www.imdb.com/title/tt1691344/'
p2498
aS'http://www.imdb.com/title/tt3655680/'
p2499
aS'http://www.imdb.com/title/tt4087962/'
p2500
aS'http://www.imdb.com/title/tt1836837/'
p2501
aS'http://www.imdb.com/title/tt3819668/'
p2502
aS'http://www.imdb.com/title/tt0271510/'
p2503
aS'http://www.imdb.com/title/tt0203237/'
p2504
aS'http://www.imdb.com/title/tt0365510/'
p2505
aS'http://www.imdb.com/title/tt2917574/'
p2506
aS'http://www.imdb.com/title/tt2296777/'
p2507
aS'http://www.imdb.com/title/tt3892702/'
p2508
aS'http://www.imdb.com/title/tt3751278/'
p2509
aS'http://www.imdb.com/title/tt1690470/'
p2510
aS'http://www.imdb.com/title/tt0089272/'
p2511
aS'http://www.imdb.com/title/tt1331294/'
p2512
aS'http://www.imdb.com/title/tt2455354/'
p2513
aS'http://www.imdb.com/title/tt0187687/'
p2514
aS'http://www.imdb.com/title/tt2062622/'
p2515
aS'http://www.imdb.com/title/tt0129297/'
p2516
aS'http://www.imdb.com/title/tt3781004/'
p2517
aS'http://www.imdb.com/title/tt1230204/'
p2518
aS'http://www.imdb.com/title/tt3844756/'
p2519
aS'http://www.imdb.com/title/tt1316090/'
p2520
aS'http://www.imdb.com/title/tt3684412/'
p2521
aS'http://www.imdb.com/title/tt0263027/'
p2522
aS'http://www.imdb.com/title/tt1277953/'
p2523
aS'http://www.imdb.com/title/tt0167770/'
p2524
aS'http://www.imdb.com/title/tt3905716/'
p2525
aS'http://www.imdb.com/title/tt2966696/'
p2526
aS'http://www.imdb.com/title/tt2368783/'
p2527
aS'http://www.imdb.com/title/tt0374552/'
p2528
aS'http://www.imdb.com/title/tt3915054/'
p2529
aS'http://www.imdb.com/title/tt2245084/'
p2530
aS'http://www.imdb.com/title/tt0056294/'
p2531
aS'http://www.imdb.com/title/tt2279314/'
p2532
aS'http://www.imdb.com/title/tt0037222/'
p2533
aS'http://www.imdb.com/title/tt0118138/'
p2534
aS'http://www.imdb.com/title/tt4087098/'
p2535
aS'http://www.imdb.com/title/tt0286904/'
p2536
aS'http://www.imdb.com/title/tt1214993/'
p2537
aS'http://www.imdb.com/title/tt3267466/'
p2538
aS'http://www.imdb.com/title/tt4298990/'
p2539
aS'http://www.imdb.com/title/tt2330912/'
p2540
aS'http://www.imdb.com/title/tt0373996/'
p2541
aS'http://www.imdb.com/title/tt2569136/'
p2542
aS'http://www.imdb.com/title/tt1109651/'
p2543
aS'http://www.imdb.com/title/tt0226100/'
p2544
aS'http://www.imdb.com/title/tt0347458/'
p2545
aS'http://www.imdb.com/title/tt1047882/'
p2546
aS'http://www.imdb.com/title/tt4143804/'
p2547
aS'http://www.imdb.com/title/tt0061062/'
p2548
aS'http://www.imdb.com/title/tt0315000/'
p2549
aS'http://www.imdb.com/title/tt1176940/'
p2550
aS'http://www.imdb.com/title/tt0826570/'
p2551
aS'http://www.imdb.com/title/tt4429160/'
p2552
aS'http://www.imdb.com/title/tt0111634/'
p2553
aS'http://www.imdb.com/title/tt1535430/'
p2554
aS'http://www.imdb.com/title/tt0178501/'
p2555
aS'http://www.imdb.com/title/tt2819148/'
p2556
aS'http://www.imdb.com/title/tt2948816/'
p2557
aS'http://www.imdb.com/title/tt1000095/'
p2558
aS'http://www.imdb.com/title/tt2431032/'
p2559
aS'http://www.imdb.com/title/tt1865541/'
p2560
aS'http://www.imdb.com/title/tt4572342/'
p2561
aS'http://www.imdb.com/title/tt3431188/'
p2562
aS'http://www.imdb.com/title/tt0934870/'
p2563
aS'http://www.imdb.com/title/tt3172162/'
p2564
aS'http://www.imdb.com/title/tt2070641/'
p2565
aS'http://www.imdb.com/title/tt0287635/'
p2566
aS'http://www.imdb.com/title/tt0291727/'
p2567
aS'http://www.imdb.com/title/tt1609486/'
p2568
aS'http://www.imdb.com/title/tt4273562/'
p2569
aS'http://www.imdb.com/title/tt1181840/'
p2570
aS'http://www.imdb.com/title/tt3198316/'
p2571
aS'http://www.imdb.com/title/tt2404237/'
p2572
aS'http://www.imdb.com/title/tt4587656/'
p2573
aS'http://www.imdb.com/title/tt0122511/'
p2574
aS'http://www.imdb.com/title/tt2237888/'
p2575
aS'http://www.imdb.com/title/tt1821658/'
p2576
aS'http://www.imdb.com/title/tt0272299/'
p2577
aS'http://www.imdb.com/title/tt0944834/'
p2578
aS'http://www.imdb.com/title/tt0406197/'
p2579
aS'http://www.imdb.com/title/tt0366548/'
p2580
aS'http://www.imdb.com/title/tt0062044/'
p2581
aS'http://www.imdb.com/title/tt0347445/'
p2582
aS'http://www.imdb.com/title/tt4071012/'
p2583
aS'http://www.imdb.com/title/tt4689936/'
p2584
aS'http://www.imdb.com/title/tt0844993/'
p2585
aS'http://www.imdb.com/title/tt0085394/'
p2586
aS'http://www.imdb.com/title/tt0221440/'
p2587
aS'http://www.imdb.com/title/tt1415872/'
p2588
aS'http://www.imdb.com/title/tt1147525/'
p2589
aS'http://www.imdb.com/title/tt0208252/'
p2590
aS'http://www.imdb.com/title/tt0312874/'
p2591
aS'http://www.imdb.com/title/tt1507283/'
p2592
aS'http://www.imdb.com/title/tt0429589/'
p2593
aS'http://www.imdb.com/title/tt0420238/'
p2594
aS'http://www.imdb.com/title/tt0997274/'
p2595
aS'http://www.imdb.com/title/tt4023452/'
p2596
aS'http://www.imdb.com/title/tt0021427/'
p2597
aS'http://www.imdb.com/title/tt1557519/'
p2598
aS'http://www.imdb.com/title/tt0426315/'
p2599
aS'http://www.imdb.com/title/tt4104140/'
p2600
aS'http://www.imdb.com/title/tt1980133/'
p2601
aS'http://www.imdb.com/title/tt0286578/'
p2602
aS'http://www.imdb.com/title/tt0142080/'
p2603
aS'http://www.imdb.com/title/tt1541005/'
p2604
aS'http://www.imdb.com/title/tt0430779/'
p2605
aS'http://www.imdb.com/title/tt0063120/'
p2606
aS'http://www.imdb.com/title/tt3688056/'
p2607
aS'http://www.imdb.com/title/tt1084680/'
p2608
aS'http://www.imdb.com/title/tt1691923/'
p2609
aS'http://www.imdb.com/title/tt0172922/'
p2610
aS'http://www.imdb.com/title/tt1614955/'
p2611
aS'http://www.imdb.com/title/tt2732078/'
p2612
aS'http://www.imdb.com/title/tt1261390/'
p2613
aS'http://www.imdb.com/title/tt4483100/'
p2614
aS'http://www.imdb.com/title/tt0204365/'
p2615
aS'http://www.imdb.com/title/tt3335192/'
p2616
aS'http://www.imdb.com/title/tt4531046/'
p2617
aS'http://www.imdb.com/title/tt0176405/'
p2618
aS'http://www.imdb.com/title/tt1753496/'
p2619
aS'http://www.imdb.com/title/tt1547014/'
p2620
aS'http://www.imdb.com/title/tt4789650/'
p2621
aS'http://www.imdb.com/title/tt1185616/'
p2622
aS'http://www.imdb.com/title/tt0181627/'
p2623
aS'http://www.imdb.com/title/tt4280556/'
p2624
aS'http://www.imdb.com/title/tt1711005/'
p2625
aS'http://www.imdb.com/title/tt0347618/'
p2626
aS'http://www.imdb.com/title/tt1686865/'
p2627
aS'http://www.imdb.com/title/tt0109553/'
p2628
aS'http://www.imdb.com/title/tt1942927/'
p2629
aS'http://www.imdb.com/title/tt2636124/'
p2630
aS'http://www.imdb.com/title/tt1779847/'
p2631
aS'http://www.imdb.com/title/tt0082509/'
p2632
aS'http://www.imdb.com/title/tt3509482/'
p2633
aS'http://www.imdb.com/title/tt0048280/'
p2634
aS'http://www.imdb.com/title/tt0784145/'
p2635
aS'http://www.imdb.com/title/tt1839647/'
p2636
aS'http://www.imdb.com/title/tt0115592/'
p2637
aS'http://www.imdb.com/title/tt0105654/'
p2638
aS'http://www.imdb.com/title/tt0082478/'
p2639
aS'http://www.imdb.com/title/tt3516222/'
p2640
aS'http://www.imdb.com/title/tt0100964/'
p2641
aS'http://www.imdb.com/title/tt2653882/'
p2642
aS'http://www.imdb.com/title/tt0277909/'
p2643
aS'http://www.imdb.com/title/tt0119698/'
p2644
aS'http://www.imdb.com/title/tt3854192/'
p2645
aS'http://www.imdb.com/title/tt2827532/'
p2646
aS'http://www.imdb.com/title/tt0448694/'
p2647
aS'http://www.imdb.com/title/tt1160524/'
p2648
aS'http://www.imdb.com/title/tt0146001/'
p2649
aS'http://www.imdb.com/title/tt1231574/'
p2650
aS'http://www.imdb.com/title/tt0238595/'
p2651
aS'http://www.imdb.com/title/tt0086148/'
p2652
aS'http://www.imdb.com/title/tt0353261/'
p2653
aS'http://www.imdb.com/title/tt3518826/'
p2654
aS'http://www.imdb.com/title/tt1107335/'
p2655
aS'http://www.imdb.com/title/tt0184653/'
p2656
aS'http://www.imdb.com/title/tt0317219/'
p2657
aS'http://www.imdb.com/title/tt1407273/'
p2658
aS'http://www.imdb.com/title/tt4400926/'
p2659
aS'http://www.imdb.com/title/tt1473336/'
p2660
aS'http://www.imdb.com/title/tt4955162/'
p2661
aS'http://www.imdb.com/title/tt0876563/'
p2662
aS'http://www.imdb.com/title/tt0120917/'
p2663
aS'http://www.imdb.com/title/tt0126189/'
p2664
aS'http://www.imdb.com/title/tt4676508/'
p2665
aS'http://www.imdb.com/title/tt4864886/'
p2666
aS'http://www.imdb.com/title/tt2380307/'
p2667
aS'http://www.imdb.com/title/tt0156811/'
p2668
aS'http://www.imdb.com/title/tt1483748/'
p2669
aS'http://www.imdb.com/title/tt0184881/'
p2670
aS'http://www.imdb.com/title/tt0072901/'
p2671
aS'http://www.imdb.com/title/tt0300105/'
p2672
aS'http://www.imdb.com/title/tt3341536/'
p2673
aS'http://www.imdb.com/title/tt0994794/'
p2674
aS'http://www.imdb.com/title/tt3751700/'
p2675
aS'http://www.imdb.com/title/tt0922366/'
p2676
aS'http://www.imdb.com/title/tt1679681/'
p2677
aS'http://www.imdb.com/title/tt0381884/'
p2678
aS'http://www.imdb.com/title/tt0110357/'
p2679
aS'http://www.imdb.com/title/tt1490017/'
p2680
aS'http://www.imdb.com/title/tt1492701/'
p2681
aS'http://www.imdb.com/title/tt0189171/'
p2682
aS'http://www.imdb.com/title/tt0032455/'
p2683
aS'http://www.imdb.com/title/tt0295900/'
p2684
aS'http://www.imdb.com/title/tt2246727/'
p2685
aS'http://www.imdb.com/title/tt2323836/'
p2686
aS'http://www.imdb.com/title/tt2552322/'
p2687
aS'http://www.imdb.com/title/tt3163844/'
p2688
aS'http://www.imdb.com/title/tt3250872/'
p2689
aS'http://www.imdb.com/title/tt2146678/'
p2690
aS'http://www.imdb.com/title/tt4061952/'
p2691
aS'http://www.imdb.com/title/tt0184872/'
p2692
aS'http://www.imdb.com/title/tt3094414/'
p2693
aS'http://www.imdb.com/title/tt1887672/'
p2694
aS'http://www.imdb.com/title/tt0120733/'
p2695
aS'http://www.imdb.com/title/tt4597482/'
p2696
aS'http://www.imdb.com/title/tt4494382/'
p2697
aS'http://www.imdb.com/title/tt4061146/'
p2698
aS'http://www.imdb.com/title/tt3861384/'
p2699
aS'http://www.imdb.com/title/tt0131704/'
p2700
aS'http://www.imdb.com/title/tt3498786/'
p2701
aS'http://www.imdb.com/title/tt2262345/'
p2702
aS'http://www.imdb.com/title/tt1374990/'
p2703
aS'http://www.imdb.com/title/tt0334890/'
p2704
aS'http://www.imdb.com/title/tt2981768/'
p2705
aS'http://www.imdb.com/title/tt0091309/'
p2706
aS'http://www.imdb.com/title/tt2079563/'
p2707
aS'http://www.imdb.com/title/tt0940656/'
p2708
aS'http://www.imdb.com/title/tt2490110/'
p2709
aS'http://www.imdb.com/title/tt1396674/'
p2710
aS'http://www.imdb.com/title/tt1620728/'
p2711
aS'http://www.imdb.com/title/tt1457604/'
p2712
aS'http://www.imdb.com/title/tt0358082/'
p2713
aS'http://www.imdb.com/title/tt0208663/'
p2714
aS'http://www.imdb.com/title/tt1966486/'
p2715
aS'http://www.imdb.com/title/tt0258050/'
p2716
aS'http://www.imdb.com/title/tt2339958/'
p2717
aS'http://www.imdb.com/title/tt0284632/'
p2718
aS'http://www.imdb.com/title/tt0291046/'
p2719
aS'http://www.imdb.com/title/tt0177247/'
p2720
aS'http://www.imdb.com/title/tt0044086/'
p2721
aS'http://www.imdb.com/title/tt3741636/'
p2722
aS'http://www.imdb.com/title/tt3780824/'
p2723
aS'http://www.imdb.com/title/tt1891769/'
p2724
aS'http://www.imdb.com/title/tt3204020/'
p2725
aS'http://www.imdb.com/title/tt0054265/'
p2726
aS'http://www.imdb.com/title/tt0083258/'
p2727
aS'http://www.imdb.com/title/tt3492042/'
p2728
aS'http://www.imdb.com/title/tt2357291/'
p2729
aS'http://www.imdb.com/title/tt1993354/'
p2730
aS'http://www.imdb.com/title/tt1520368/'
p2731
aS'http://www.imdb.com/title/tt2911406/'
p2732
aS'http://www.imdb.com/title/tt0824323/'
p2733
aS'http://www.imdb.com/title/tt0220099/'
p2734
aS'http://www.imdb.com/title/tt0087376/'
p2735
aS'http://www.imdb.com/title/tt4839422/'
p2736
aS'http://www.imdb.com/title/tt0259929/'
p2737
aS'http://www.imdb.com/title/tt2564760/'
p2738
aS'http://www.imdb.com/title/tt1584913/'
p2739
aS'http://www.imdb.com/title/tt0136748/'
p2740
aS'http://www.imdb.com/title/tt0482603/'
p2741
aS'http://www.imdb.com/title/tt1473393/'
p2742
aS'http://www.imdb.com/title/tt1629374/'
p2743
aS'http://www.imdb.com/title/tt0127331/'
p2744
aS'http://www.imdb.com/title/tt4177856/'
p2745
aS'http://www.imdb.com/title/tt0372871/'
p2746
aS'http://www.imdb.com/title/tt0170181/'
p2747
aS'http://www.imdb.com/title/tt0351045/'
p2748
aS'http://www.imdb.com/title/tt1352809/'
p2749
aS'http://www.imdb.com/title/tt0426064/'
p2750
aS'http://www.imdb.com/title/tt0345600/'
p2751
aS'http://www.imdb.com/title/tt1239462/'
p2752
aS'http://www.imdb.com/title/tt0081881/'
p2753
aS'http://www.imdb.com/title/tt3465534/'
p2754
aS'http://www.imdb.com/title/tt0363704/'
p2755
aS'http://www.imdb.com/title/tt0494043/'
p2756
aS'http://www.imdb.com/title/tt1488181/'
p2757
aS'http://www.imdb.com/title/tt1343712/'
p2758
aS'http://www.imdb.com/title/tt0884819/'
p2759
aS'http://www.imdb.com/title/tt0160429/'
p2760
aS'http://www.imdb.com/title/tt3157636/'
p2761
aS'http://www.imdb.com/title/tt3689910/'
p2762
aS'http://www.imdb.com/title/tt1849027/'
p2763
aS'http://www.imdb.com/title/tt1616179/'
p2764
aS'http://www.imdb.com/title/tt2974918/'
p2765
aS'http://www.imdb.com/title/tt1546649/'
p2766
aS'http://www.imdb.com/title/tt1922736/'
p2767
aS'http://www.imdb.com/title/tt4715644/'
p2768
aS'http://www.imdb.com/title/tt0065953/'
p2769
aS'http://www.imdb.com/title/tt0306444/'
p2770
aS'http://www.imdb.com/title/tt1199467/'
p2771
aS'http://www.imdb.com/title/tt0808506/'
p2772
aS'http://www.imdb.com/title/tt0131479/'
p2773
aS'http://www.imdb.com/title/tt3916346/'
p2774
aS'http://www.imdb.com/title/tt4346600/'
p2775
aS'http://www.imdb.com/title/tt0312305/'
p2776
aS'http://www.imdb.com/title/tt0409848/'
p2777
aS'http://www.imdb.com/title/tt0099285/'
p2778
aS'http://www.imdb.com/title/tt3691942/'
p2779
aS'http://www.imdb.com/title/tt1473064/'
p2780
aS'http://www.imdb.com/title/tt0969348/'
p2781
aS'http://www.imdb.com/title/tt1540148/'
p2782
aS'http://www.imdb.com/title/tt4387006/'
p2783
aS'http://www.imdb.com/title/tt0156539/'
p2784
aS'http://www.imdb.com/title/tt4442030/'
p2785
aS'http://www.imdb.com/title/tt0238391/'
p2786
aS'http://www.imdb.com/title/tt0361500/'
p2787
aS'http://www.imdb.com/title/tt0120254/'
p2788
aS'http://www.imdb.com/title/tt1636815/'
p2789
aS'http://www.imdb.com/title/tt0397230/'
p2790
aS'http://www.imdb.com/title/tt0323869/'
p2791
aS'http://www.imdb.com/title/tt0059212/'
p2792
aS'http://www.imdb.com/title/tt1687231/'
p2793
aS'http://www.imdb.com/title/tt1757846/'
p2794
aS'http://www.imdb.com/title/tt2668134/'
p2795
aS'http://www.imdb.com/title/tt0495596/'
p2796
aS'http://www.imdb.com/title/tt1918789/'
p2797
aS'http://www.imdb.com/title/tt1050739/'
p2798
aS'http://www.imdb.com/title/tt0283107/'
p2799
aS'http://www.imdb.com/title/tt2889078/'
p2800
aS'http://www.imdb.com/title/tt0851471/'
p2801
aS'http://www.imdb.com/title/tt0294886/'
p2802
aS'http://www.imdb.com/title/tt0332318/'
p2803
aS'http://www.imdb.com/title/tt0086203/'
p2804
aS'http://www.imdb.com/title/tt2993424/'
p2805
aS'http://www.imdb.com/title/tt4454788/'
p2806
aS'http://www.imdb.com/title/tt0298388/'
p2807
aS'http://www.imdb.com/title/tt0109182/'
p2808
aS'http://www.imdb.com/title/tt0053275/'
p2809
aS'http://www.imdb.com/title/tt2355737/'
p2810
aS'http://www.imdb.com/title/tt3268404/'
p2811
aS'http://www.imdb.com/title/tt0331711/'
p2812
aS'http://www.imdb.com/title/tt0268531/'
p2813
aS'http://www.imdb.com/title/tt0238597/'
p2814
aS'http://www.imdb.com/title/tt0109162/'
p2815
aS'http://www.imdb.com/title/tt0052527/'
p2816
aS'http://www.imdb.com/title/tt2086840/'
p2817
aS'http://www.imdb.com/title/tt4885238/'
p2818
aS'http://www.imdb.com/title/tt1062381/'
p2819
aS'http://www.imdb.com/title/tt1264071/'
p2820
aS'http://www.imdb.com/title/tt4008392/'
p2821
aS'http://www.imdb.com/title/tt0129551/'
p2822
aS'http://www.imdb.com/title/tt0881252/'
p2823
aS'http://www.imdb.com/title/tt0055254/'
p2824
aS'http://www.imdb.com/title/tt0346514/'
p2825
aS'http://www.imdb.com/title/tt1458908/'
p2826
aS'http://www.imdb.com/title/tt2990836/'
p2827
aS'http://www.imdb.com/title/tt1517216/'
p2828
aS'http://www.imdb.com/title/tt0286848/'
p2829
aS'http://www.imdb.com/title/tt1705952/'
p2830
aS'http://www.imdb.com/title/tt1487280/'
p2831
aS'http://www.imdb.com/title/tt0146362/'
p2832
aS'http://www.imdb.com/title/tt3796312/'
p2833
aS'http://www.imdb.com/title/tt0245429/'
p2834
aS'http://www.imdb.com/title/tt2288005/'
p2835
aS'http://www.imdb.com/title/tt2390309/'
p2836
aS'http://www.imdb.com/title/tt1302067/'
p2837
aS'http://www.imdb.com/title/tt0363141/'
p2838
aS'http://www.imdb.com/title/tt0338748/'
p2839
aS'http://www.imdb.com/title/tt4520988/'
p2840
aS'http://www.imdb.com/title/tt3386244/'
p2841
aS'http://www.imdb.com/title/tt3079670/'
p2842
aS'http://www.imdb.com/title/tt1849772/'
p2843
aS'http://www.imdb.com/title/tt1288380/'
p2844
aS'http://www.imdb.com/title/tt0096787/'
p2845
aS'http://www.imdb.com/title/tt0091149/'
p2846
aS'http://www.imdb.com/title/tt0119170/'
p2847
aS'http://www.imdb.com/title/tt2959216/'
p2848
aS'http://www.imdb.com/title/tt0090960/'
p2849
aS'http://www.imdb.com/title/tt1021087/'
p2850
aS'http://www.imdb.com/title/tt2114488/'
p2851
aS'http://www.imdb.com/title/tt1641398/'
p2852
aS'http://www.imdb.com/title/tt0451079/'
p2853
aS'http://www.imdb.com/title/tt0366606/'
p2854
aS'http://www.imdb.com/title/tt0088678/'
p2855
aS'http://www.imdb.com/title/tt2856442/'
p2856
aS'http://www.imdb.com/title/tt3953388/'
p2857
aS'http://www.imdb.com/title/tt0259134/'
p2858
aS'http://www.imdb.com/title/tt3072888/'
p2859
aS'http://www.imdb.com/title/tt1803226/'
p2860
aS'http://www.imdb.com/title/tt0093118/'
p2861
aS'http://www.imdb.com/title/tt4733194/'
p2862
aS'http://www.imdb.com/title/tt0092106/'
p2863
aS'http://www.imdb.com/title/tt0848537/'
p2864
aS'http://www.imdb.com/title/tt4503906/'
p2865
aS'http://www.imdb.com/title/tt0187819/'
p2866
aS'http://www.imdb.com/title/tt0056060/'
p2867
aS'http://www.imdb.com/title/tt1189033/'
p2868
aS'http://www.imdb.com/title/tt0101414/'
p2869
aS'http://www.imdb.com/title/tt0219418/'
p2870
aS'http://www.imdb.com/title/tt0063475/'
p2871
aS'http://www.imdb.com/title/tt0103837/'
p2872
aS'http://www.imdb.com/title/tt4544468/'
p2873
aS'http://www.imdb.com/title/tt3579420/'
p2874
aS'http://www.imdb.com/title/tt2335908/'
p2875
aS'http://www.imdb.com/title/tt1948223/'
p2876
aS'http://www.imdb.com/title/tt2067027/'
p2877
aS'http://www.imdb.com/title/tt2510894/'
p2878
aS'http://www.imdb.com/title/tt1527821/'
p2879
aS'http://www.imdb.com/title/tt3306776/'
p2880
aS'http://www.imdb.com/title/tt0076591/'
p2881
aS'http://www.imdb.com/title/tt3005710/'
p2882
aS'http://www.imdb.com/title/tt1874412/'
p2883
aS'http://www.imdb.com/title/tt0454883/'
p2884
aS'http://www.imdb.com/title/tt1245753/'
p2885
aS'http://www.imdb.com/title/tt0442507/'
p2886
aS'http://www.imdb.com/title/tt4357590/'
p2887
aS'http://www.imdb.com/title/tt2786258/'
p2888
aS'http://www.imdb.com/title/tt0778631/'
p2889
aS'http://www.imdb.com/title/tt0055439/'
p2890
aS'http://www.imdb.com/title/tt1346384/'
p2891
aS'http://www.imdb.com/title/tt1775313/'
p2892
aS'http://www.imdb.com/title/tt0166276/'
p2893
aS'http://www.imdb.com/title/tt0347791/'
p2894
aS'http://www.imdb.com/title/tt0036850/'
p2895
aS'http://www.imdb.com/title/tt0360790/'
p2896
aS'http://www.imdb.com/title/tt1319629/'
p2897
aS'http://www.imdb.com/title/tt4806378/'
p2898
aS'http://www.imdb.com/title/tt1672136/'
p2899
aS'http://www.imdb.com/title/tt0477602/'
p2900
aS'http://www.imdb.com/title/tt1342403/'
p2901
aS'http://www.imdb.com/title/tt3837842/'
p2902
aS'http://www.imdb.com/title/tt1268854/'
p2903
aS'http://www.imdb.com/title/tt5061124/'
p2904
aS'http://www.imdb.com/title/tt4460634/'
p2905
aS'http://www.imdb.com/title/tt2846426/'
p2906
aS'http://www.imdb.com/title/tt0298980/'
p2907
aS'http://www.imdb.com/title/tt3557580/'
p2908
aS'http://www.imdb.com/title/tt0348495/'
p2909
aS'http://www.imdb.com/title/tt3140658/'
p2910
aS'http://www.imdb.com/title/tt1650438/'
p2911
aS'http://www.imdb.com/title/tt1394245/'
p2912
aS'http://www.imdb.com/title/tt2630134/'
p2913
aS'http://www.imdb.com/title/tt4487076/'
p2914
aS'http://www.imdb.com/title/tt0275847/'
p2915
aS'http://www.imdb.com/title/tt0112545/'
p2916
aS'http://www.imdb.com/title/tt1460738/'
p2917
aS'http://www.imdb.com/title/tt0198781/'
p2918
aS'http://www.imdb.com/title/tt0293416/'
p2919
aS'http://www.imdb.com/title/tt3981582/'
p2920
aS'http://www.imdb.com/title/tt4729560/'
p2921
aS'http://www.imdb.com/title/tt0078187/'
p2922
aS'http://www.imdb.com/title/tt0486095/'
p2923
aS'http://www.imdb.com/title/tt0365296/'
p2924
aS'http://www.imdb.com/title/tt0258059/'
p2925
aS'http://www.imdb.com/title/tt1842364/'
p2926
aS'http://www.imdb.com/title/tt3529198/'
p2927
aS'http://www.imdb.com/title/tt0416781/'
p2928
aS'http://www.imdb.com/title/tt1674086/'
p2929
aS'http://www.imdb.com/title/tt0067286/'
p2930
aS'http://www.imdb.com/title/tt2312262/'
p2931
aS'http://www.imdb.com/title/tt0097839/'
p2932
aS'http://www.imdb.com/title/tt2659374/'
p2933
aS'http://www.imdb.com/title/tt0872236/'
p2934
aS'http://www.imdb.com/title/tt0029912/'
p2935
aS'http://www.imdb.com/title/tt0047834/'
p2936
aS'http://www.imdb.com/title/tt3554046/'
p2937
aS'http://www.imdb.com/title/tt1974368/'
p2938
aS'http://www.imdb.com/title/tt1058779/'
p2939
aS'http://www.imdb.com/title/tt4410000/'
p2940
aS'http://www.imdb.com/title/tt0161978/'
p2941
aS'http://www.imdb.com/title/tt4714032/'
p2942
aS'http://www.imdb.com/title/tt0270251/'
p2943
aS'http://www.imdb.com/title/tt0291211/'
p2944
aS'http://www.imdb.com/title/tt0306133/'
p2945
aS'http://www.imdb.com/title/tt3517948/'
p2946
aS'http://www.imdb.com/title/tt1187007/'
p2947
aS'http://www.imdb.com/title/tt1690441/'
p2948
aS'http://www.imdb.com/title/tt2583814/'
p2949
aS'http://www.imdb.com/title/tt0455142/'
p2950
aS'http://www.imdb.com/title/tt3714574/'
p2951
aS'http://www.imdb.com/title/tt2580474/'
p2952
aS'http://www.imdb.com/title/tt1334413/'
p2953
aS'http://www.imdb.com/title/tt3756580/'
p2954
aS'http://www.imdb.com/title/tt1073670/'
p2955
aS'http://www.imdb.com/title/tt1677709/'
p2956
aS'http://www.imdb.com/title/tt2408288/'
p2957
aS'http://www.imdb.com/title/tt0146349/'
p2958
aS'http://www.imdb.com/title/tt0135037/'
p2959
aS'http://www.imdb.com/title/tt3582072/'
p2960
aS'http://www.imdb.com/title/tt0498536/'
p2961
aS'http://www.imdb.com/title/tt1830553/'
p2962
aS'http://www.imdb.com/title/tt0420173/'
p2963
aS'http://www.imdb.com/title/tt1147511/'
p2964
aS'http://www.imdb.com/title/tt1927094/'
p2965
aS'http://www.imdb.com/title/tt2919466/'
p2966
aS'http://www.imdb.com/title/tt1606383/'
p2967
aS'http://www.imdb.com/title/tt3314908/'
p2968
aS'http://www.imdb.com/title/tt1107334/'
p2969
aS'http://www.imdb.com/title/tt1630606/'
p2970
aS'http://www.imdb.com/title/tt2225362/'
p2971
aS'http://www.imdb.com/title/tt0230011/'
p2972
aS'http://www.imdb.com/title/tt0278307/'
p2973
aS'http://www.imdb.com/title/tt1194618/'
p2974
aS'http://www.imdb.com/title/tt2700240/'
p2975
aS'http://www.imdb.com/title/tt1614343/'
p2976
aS'http://www.imdb.com/title/tt3776604/'
p2977
aS'http://www.imdb.com/title/tt0399412/'
p2978
aS'http://www.imdb.com/title/tt0871896/'
p2979
aS'http://www.imdb.com/title/tt0112946/'
p2980
aS'http://www.imdb.com/title/tt1021002/'
p2981
aS'http://www.imdb.com/title/tt1217209/'
p2982
aS'http://www.imdb.com/title/tt0806139/'
p2983
aS'http://www.imdb.com/title/tt0424488/'
p2984
aS'http://www.imdb.com/title/tt0481499/'
p2985
aS'http://www.imdb.com/title/tt0062260/'
p2986
aS'http://www.imdb.com/title/tt1278060/'
p2987
aS'http://www.imdb.com/title/tt0161107/'
p2988
aS'http://www.imdb.com/title/tt0419165/'
p2989
aS'http://www.imdb.com/title/tt0436070/'
p2990
aS'http://www.imdb.com/title/tt0356936/'
p2991
aS'http://www.imdb.com/title/tt3883968/'
p2992
aS'http://www.imdb.com/title/tt2856874/'
p2993
aS'http://www.imdb.com/title/tt1147528/'
p2994
aS'http://www.imdb.com/title/tt4416372/'
p2995
aS'http://www.imdb.com/title/tt3158366/'
p2996
aS'http://www.imdb.com/title/tt1713496/'
p2997
aS'http://www.imdb.com/title/tt0045160/'
p2998
aS'http://www.imdb.com/title/tt2475772/'
p2999
aS'http://www.imdb.com/title/tt3226634/'
p3000
aS'http://www.imdb.com/title/tt0086515/'
p3001
aS'http://www.imdb.com/title/tt2499534/'
p3002
aS'http://www.imdb.com/title/tt0342853/'
p3003
aS'http://www.imdb.com/title/tt2073154/'
p3004
aS'http://www.imdb.com/title/tt0287329/'
p3005
aS'http://www.imdb.com/title/tt3663640/'
p3006
aS'http://www.imdb.com/title/tt0174201/'
p3007
aS'http://www.imdb.com/title/tt3554004/'
p3008
aS'http://www.imdb.com/title/tt1827386/'
p3009
aS'http://www.imdb.com/title/tt0138613/'
p3010
aS'http://www.imdb.com/title/tt3273260/'
p3011
aS'http://www.imdb.com/title/tt2244618/'
p3012
aS'http://www.imdb.com/title/tt1075365/'
p3013
aS'http://www.imdb.com/title/tt0931283/'
p3014
aS'http://www.imdb.com/title/tt4164722/'
p3015
aS'http://www.imdb.com/title/tt2317414/'
p3016
aS'http://www.imdb.com/title/tt3593726/'
p3017
aS'http://www.imdb.com/title/tt3876928/'
p3018
aS'http://www.imdb.com/title/tt0107688/'
p3019
aS'http://www.imdb.com/title/tt0301085/'
p3020
aS'http://www.imdb.com/title/tt0060651/'
p3021
aS'http://www.imdb.com/title/tt4287160/'
p3022
aS'http://www.imdb.com/title/tt0225346/'
p3023
aS'http://www.imdb.com/title/tt0159509/'
p3024
aS'http://www.imdb.com/title/tt0239096/'
p3025
aS'http://www.imdb.com/title/tt0204541/'
p3026
aS'http://www.imdb.com/title/tt0107289/'
p3027
aS'http://www.imdb.com/title/tt4001526/'
p3028
aS'http://www.imdb.com/title/tt4499280/'
p3029
aS'http://www.imdb.com/title/tt4695548/'
p3030
aS'http://www.imdb.com/title/tt1117392/'
p3031
aS'http://www.imdb.com/title/tt4121090/'
p3032
aS'http://www.imdb.com/title/tt4016942/'
p3033
aS'http://www.imdb.com/title/tt2630526/'
p3034
aS'http://www.imdb.com/title/tt0084881/'
p3035
aS'http://www.imdb.com/title/tt0978762/'
p3036
aS'http://www.imdb.com/title/tt1879017/'
p3037
aS'http://www.imdb.com/title/tt4851798/'
p3038
aS'http://www.imdb.com/title/tt1966450/'
p3039
aS'http://www.imdb.com/title/tt0274681/'
p3040
aS'http://www.imdb.com/title/tt0158568/'
p3041
aS'http://www.imdb.com/title/tt3912854/'
p3042
aS'http://www.imdb.com/title/tt0090240/'
p3043
aS'http://www.imdb.com/title/tt1844665/'
p3044
aS'http://www.imdb.com/title/tt0170374/'
p3045
aS'http://www.imdb.com/title/tt0312694/'
p3046
aS'http://www.imdb.com/title/tt2932720/'
p3047
aS'http://www.imdb.com/title/tt2194760/'
p3048
aS'http://www.imdb.com/title/tt0171199/'
p3049
aS'http://www.imdb.com/title/tt2046099/'
p3050
aS'http://www.imdb.com/title/tt4862056/'
p3051
aS'http://www.imdb.com/title/tt2005363/'
p3052
aS'http://www.imdb.com/title/tt4045320/'
p3053
aS'http://www.imdb.com/title/tt1638365/'
p3054
aS'http://www.imdb.com/title/tt2179678/'
p3055
aS'http://www.imdb.com/title/tt0240996/'
p3056
aS'http://www.imdb.com/title/tt1521839/'
p3057
aS'http://www.imdb.com/title/tt3205434/'
p3058
aS'http://www.imdb.com/title/tt1843864/'
p3059
aS'http://www.imdb.com/title/tt4412240/'
p3060
aS'http://www.imdb.com/title/tt1723025/'
p3061
aS'http://www.imdb.com/title/tt3595170/'
p3062
aS'http://www.imdb.com/title/tt0155288/'
p3063
aS'http://www.imdb.com/title/tt0413267/'
p3064
aS'http://www.imdb.com/title/tt0306849/'
p3065
aS'http://www.imdb.com/title/tt4183924/'
p3066
aS'http://www.imdb.com/title/tt2224477/'
p3067
aS'http://www.imdb.com/title/tt4079954/'
p3068
aS'http://www.imdb.com/title/tt0116728/'
p3069
aS'http://www.imdb.com/title/tt0339041/'
p3070
aS'http://www.imdb.com/title/tt1819706/'
p3071
aS'http://www.imdb.com/title/tt3527020/'
p3072
aS'http://www.imdb.com/title/tt1239461/'
p3073
aS'http://www.imdb.com/title/tt0468812/'
p3074
aS'http://www.imdb.com/title/tt4653378/'
p3075
aS'http://www.imdb.com/title/tt0202463/'
p3076
aS'http://www.imdb.com/title/tt0112862/'
p3077
aS'http://www.imdb.com/title/tt0269358/'
p3078
aS'http://www.imdb.com/title/tt0114349/'
p3079
aS'http://www.imdb.com/title/tt0072004/'
p3080
aS'http://www.imdb.com/title/tt1296149/'
p3081
aS'http://www.imdb.com/title/tt0486321/'
p3082
aS'http://www.imdb.com/title/tt0091880/'
p3083
aS'http://www.imdb.com/title/tt4168024/'
p3084
aS'http://www.imdb.com/title/tt0405474/'
p3085
aS'http://www.imdb.com/title/tt1966447/'
p3086
aS'http://www.imdb.com/title/tt2411156/'
p3087
aS'http://www.imdb.com/title/tt0373184/'
p3088
aS'http://www.imdb.com/title/tt0093101/'
p3089
aS'http://www.imdb.com/title/tt0059855/'
p3090
aS'http://www.imdb.com/title/tt0065952/'
p3091
aS'http://www.imdb.com/title/tt0499525/'
p3092
aS'http://www.imdb.com/title/tt0199898/'
p3093
aS'http://www.imdb.com/title/tt3032300/'
p3094
aS'http://www.imdb.com/title/tt3028018/'
p3095
aS'http://www.imdb.com/title/tt2231505/'
p3096
aS'http://www.imdb.com/title/tt1199779/'
p3097
aS'http://www.imdb.com/title/tt2290828/'
p3098
aS'http://www.imdb.com/title/tt4534480/'
p3099
aS'http://www.imdb.com/title/tt0099878/'
p3100
aS'http://www.imdb.com/title/tt4534598/'
p3101
aS'http://www.imdb.com/title/tt1067106/'
p3102
aS'http://www.imdb.com/title/tt4560966/'
p3103
aS'http://www.imdb.com/title/tt1869678/'
p3104
aS'http://www.imdb.com/title/tt1727860/'
p3105
aS'http://www.imdb.com/title/tt0371552/'
p3106
aS'http://www.imdb.com/title/tt0360887/'
p3107
aS'http://www.imdb.com/title/tt0162329/'
p3108
aS'http://www.imdb.com/title/tt0145735/'
p3109
aS'http://www.imdb.com/title/tt1467299/'
p3110
aS'http://www.imdb.com/title/tt0336952/'
p3111
aS'http://www.imdb.com/title/tt0299878/'
p3112
aS'http://www.imdb.com/title/tt2764892/'
p3113
aS'http://www.imdb.com/title/tt1379057/'
p3114
aS'http://www.imdb.com/title/tt4581522/'
p3115
aS'http://www.imdb.com/title/tt3915172/'
p3116
aS'http://www.imdb.com/title/tt1179773/'
p3117
aS'http://www.imdb.com/title/tt0996976/'
p3118
aS'http://www.imdb.com/title/tt0969345/'
p3119
aS'http://www.imdb.com/title/tt1885253/'
p3120
aS'http://www.imdb.com/title/tt0218382/'
p3121
aS'http://www.imdb.com/title/tt0142193/'
p3122
aS'http://www.imdb.com/title/tt0955411/'
p3123
aS'http://www.imdb.com/title/tt3920220/'
p3124
aS'http://www.imdb.com/title/tt0926036/'
p3125
aS'http://www.imdb.com/title/tt4657400/'
p3126
aS'http://www.imdb.com/title/tt1067920/'
p3127
aS'http://www.imdb.com/title/tt0443769/'
p3128
aS'http://www.imdb.com/title/tt0262264/'
p3129
aS'http://www.imdb.com/title/tt2960524/'
p3130
aS'http://www.imdb.com/title/tt0191280/'
p3131
aS'http://www.imdb.com/title/tt1827527/'
p3132
aS'http://www.imdb.com/title/tt0145677/'
p3133
aS'http://www.imdb.com/title/tt1890371/'
p3134
aS'http://www.imdb.com/title/tt4557690/'
p3135
aS'http://www.imdb.com/title/tt2131586/'
p3136
aS'http://www.imdb.com/title/tt3319148/'
p3137
aS'http://www.imdb.com/title/tt1754455/'
p3138
aS'http://www.imdb.com/title/tt4489416/'
p3139
aS'http://www.imdb.com/title/tt2948358/'
p3140
aS'http://www.imdb.com/title/tt0483706/'
p3141
aS'http://www.imdb.com/title/tt0348121/'
p3142
aS'http://www.imdb.com/title/tt0354770/'
p3143
aS'http://www.imdb.com/title/tt0276132/'
p3144
aS'http://www.imdb.com/title/tt2897368/'
p3145
aS'http://www.imdb.com/title/tt2130320/'
p3146
aS'http://www.imdb.com/title/tt0271719/'
p3147
aS'http://www.imdb.com/title/tt0185359/'
p3148
aS'http://www.imdb.com/title/tt2109131/'
p3149
aS'http://www.imdb.com/title/tt1235830/'
p3150
aS'http://www.imdb.com/title/tt0166721/'
p3151
aS'http://www.imdb.com/title/tt4599466/'
p3152
aS'http://www.imdb.com/title/tt0145675/'
p3153
aS'http://www.imdb.com/title/tt0297997/'
p3154
aS'http://www.imdb.com/title/tt0220996/'
p3155
aS'http://www.imdb.com/title/tt0312821/'
p3156
aS'http://www.imdb.com/title/tt0356836/'
p3157
aS'http://www.imdb.com/title/tt4872166/'
p3158
aS'http://www.imdb.com/title/tt0295455/'
p3159
aS'http://www.imdb.com/title/tt1935913/'
p3160
aS'http://www.imdb.com/title/tt0449634/'
p3161
aS'http://www.imdb.com/title/tt1623780/'
p3162
aS'http://www.imdb.com/title/tt3685268/'
p3163
aS'http://www.imdb.com/title/tt1817230/'
p3164
aS'http://www.imdb.com/title/tt0185481/'
p3165
aS'http://www.imdb.com/title/tt1080647/'
p3166
aS'http://www.imdb.com/title/tt3470600/'
p3167
aS'http://www.imdb.com/title/tt0787474/'
p3168
aS'http://www.imdb.com/title/tt3526408/'
p3169
aS'http://www.imdb.com/title/tt0428646/'
p3170
aS'http://www.imdb.com/title/tt0117705/'
p3171
aS'http://www.imdb.com/title/tt3014376/'
p3172
aS'http://www.imdb.com/title/tt0309827/'
p3173
aS'http://www.imdb.com/title/tt1087841/'
p3174
aS'http://www.imdb.com/title/tt0124770/'
p3175
aS'http://www.imdb.com/title/tt0320282/'
p3176
aS'http://www.imdb.com/title/tt1235827/'
p3177
aS'http://www.imdb.com/title/tt0038969/'
p3178
aS'http://www.imdb.com/title/tt1147522/'
p3179
aS'http://www.imdb.com/title/tt1947979/'
p3180
aS'http://www.imdb.com/title/tt4717482/'
p3181
aS'http://www.imdb.com/title/tt0152979/'
p3182
aS'http://www.imdb.com/title/tt2368672/'
p3183
aS'http://www.imdb.com/title/tt0065433/'
p3184
aS'http://www.imdb.com/title/tt0286565/'
p3185
aS'http://www.imdb.com/title/tt0983213/'
p3186
aS'http://www.imdb.com/title/tt0065434/'
p3187
aS'http://www.imdb.com/title/tt1146290/'
p3188
aS'http://www.imdb.com/title/tt3709868/'
p3189
aS'http://www.imdb.com/title/tt1607568/'
p3190
aS'http://www.imdb.com/title/tt2460448/'
p3191
aS'http://www.imdb.com/title/tt2507174/'
p3192
aS'http://www.imdb.com/title/tt0281789/'
p3193
aS'http://www.imdb.com/title/tt1500718/'
p3194
aS'http://www.imdb.com/title/tt2119579/'
p3195
aS'http://www.imdb.com/title/tt1257561/'
p3196
aS'http://www.imdb.com/title/tt0200613/'
p3197
aS'http://www.imdb.com/title/tt0243585/'
p3198
aS'http://www.imdb.com/title/tt0383224/'
p3199
aS'http://www.imdb.com/title/tt0491027/'
p3200
aS'http://www.imdb.com/title/tt0131650/'
p3201
aS'http://www.imdb.com/title/tt3833714/'
p3202
aS'http://www.imdb.com/title/tt0146324/'
p3203
aS'http://www.imdb.com/title/tt0276319/'
p3204
aS'http://www.imdb.com/title/tt1690991/'
p3205
aS'http://www.imdb.com/title/tt0308217/'
p3206
aS'http://www.imdb.com/title/tt1976562/'
p3207
aS'http://www.imdb.com/title/tt0298903/'
p3208
aS'http://www.imdb.com/title/tt0092218/'
p3209
aS'http://www.imdb.com/title/tt2303898/'
p3210
aS'http://www.imdb.com/title/tt0353369/'
p3211
aS'http://www.imdb.com/title/tt0983193/'
p3212
aS'http://www.imdb.com/title/tt0098426/'
p3213
aS'http://www.imdb.com/title/tt1216516/'
p3214
aS'http://www.imdb.com/title/tt2296935/'
p3215
aS'http://www.imdb.com/title/tt0145655/'
p3216
aS'http://www.imdb.com/title/tt2918094/'
p3217
aS'http://www.imdb.com/title/tt0146260/'
p3218
aS'http://www.imdb.com/title/tt1817232/'
p3219
aS'http://www.imdb.com/title/tt1756835/'
p3220
aS'http://www.imdb.com/title/tt0400817/'
p3221
aS'http://www.imdb.com/title/tt0120855/'
p3222
aS'http://www.imdb.com/title/tt0120800/'
p3223
aS'http://www.imdb.com/title/tt0089793/'
p3224
aS'http://www.imdb.com/title/tt3364946/'
p3225
aS'http://www.imdb.com/title/tt3505254/'
p3226
aS'http://www.imdb.com/title/tt0087925/'
p3227
aS'http://www.imdb.com/title/tt0101329/'
p3228
aS'http://www.imdb.com/title/tt0937401/'
p3229
aS'http://www.imdb.com/title/tt3922686/'
p3230
aS'http://www.imdb.com/title/tt1851873/'
p3231
aS'http://www.imdb.com/title/tt1068773/'
p3232
aS'http://www.imdb.com/title/tt0062965/'
p3233
aS'http://www.imdb.com/title/tt0247061/'
p3234
aS'http://www.imdb.com/title/tt0183308/'
p3235
aS'http://www.imdb.com/title/tt2016868/'
p3236
aS'http://www.imdb.com/title/tt0145875/'
p3237
aS'http://www.imdb.com/title/tt3665916/'
p3238
aS'http://www.imdb.com/title/tt2189738/'
p3239
aS'http://www.imdb.com/title/tt1862489/'
p3240
aS'http://www.imdb.com/title/tt0224175/'
p3241
aS'http://www.imdb.com/title/tt1587157/'
p3242
aS'http://www.imdb.com/title/tt4184350/'
p3243
aS'http://www.imdb.com/title/tt0146246/'
p3244
aS'http://www.imdb.com/title/tt0110763/'
p3245
aS'http://www.imdb.com/title/tt4357142/'
p3246
aS'http://www.imdb.com/title/tt0188992/'
p3247
aS'http://www.imdb.com/title/tt0936472/'
p3248
aS'http://www.imdb.com/title/tt0102812/'
p3249
aS'http://www.imdb.com/title/tt1714199/'
p3250
aS'http://www.imdb.com/title/tt4613722/'
p3251
aS'http://www.imdb.com/title/tt3835438/'
p3252
aS'http://www.imdb.com/title/tt1407082/'
p3253
aS'http://www.imdb.com/title/tt2226178/'
p3254
aS'http://www.imdb.com/title/tt1621766/'
p3255
aS'http://www.imdb.com/title/tt1538294/'
p3256
aS'http://www.imdb.com/title/tt2234555/'
p3257
aS'http://www.imdb.com/title/tt2133306/'
p3258
aS'http://www.imdb.com/title/tt3737650/'
p3259
aS'http://www.imdb.com/title/tt1274275/'
p3260
aS'http://www.imdb.com/title/tt3557294/'
p3261
aS'http://www.imdb.com/title/tt0493440/'
p3262
aS'http://www.imdb.com/title/tt1632481/'
p3263
aS'http://www.imdb.com/title/tt2010966/'
p3264
aS'http://www.imdb.com/title/tt2064704/'
p3265
aS'http://www.imdb.com/title/tt0405296/'
p3266
aS'http://www.imdb.com/title/tt0049367/'
p3267
aS'http://www.imdb.com/title/tt0296074/'
p3268
aS'http://www.imdb.com/title/tt1037226/'
p3269
aS'http://www.imdb.com/title/tt3714950/'
p3270
aS'http://www.imdb.com/title/tt1049413/'
p3271
aS'http://www.imdb.com/title/tt1433915/'
p3272
aS'http://www.imdb.com/title/tt0209394/'
p3273
aS'http://www.imdb.com/title/tt1361336/'
p3274
aS'http://www.imdb.com/title/tt0496296/'
p3275
aS'http://www.imdb.com/title/tt1840933/'
p3276
aS'http://www.imdb.com/title/tt1187005/'
p3277
aS'http://www.imdb.com/title/tt4307880/'
p3278
aS'http://www.imdb.com/title/tt3410034/'
p3279
aS'http://www.imdb.com/title/tt0317444/'
p3280
aS'http://www.imdb.com/title/tt0419073/'
p3281
aS'http://www.imdb.com/title/tt2006753/'
p3282
aS'http://www.imdb.com/title/tt4624424/'
p3283
aS'http://www.imdb.com/title/tt0104622/'
p3284
aS'http://www.imdb.com/title/tt4361020/'
p3285
aS'http://www.imdb.com/title/tt2384892/'
p3286
aS'http://www.imdb.com/title/tt2714788/'
p3287
aS'http://www.imdb.com/title/tt1679335/'
p3288
aS'http://www.imdb.com/title/tt2983564/'
p3289
aS'http://www.imdb.com/title/tt1877646/'
p3290
aS'http://www.imdb.com/title/tt1013607/'
p3291
aS'http://www.imdb.com/title/tt4179512/'
p3292
aS'http://www.imdb.com/title/tt0095448/'
p3293
aS'http://www.imdb.com/title/tt0112389/'
p3294
aS'http://www.imdb.com/title/tt4797286/'
p3295
aS'http://www.imdb.com/title/tt3843334/'
p3296
aS'http://www.imdb.com/title/tt1124374/'
p3297
aS'http://www.imdb.com/title/tt0829238/'
p3298
aS'http://www.imdb.com/title/tt0140648/'
p3299
aS'http://www.imdb.com/title/tt3343120/'
p3300
aS'http://www.imdb.com/title/tt0312004/'
p3301
aS'http://www.imdb.com/title/tt0816640/'
p3302
aS'http://www.imdb.com/title/tt0202393/'
p3303
aS'http://www.imdb.com/title/tt0287058/'
p3304
aS'http://www.imdb.com/title/tt0264837/'
p3305
aS'http://www.imdb.com/title/tt1706670/'
p3306
aS'http://www.imdb.com/title/tt0100245/'
p3307
aS'http://www.imdb.com/title/tt0282120/'
p3308
aS'http://www.imdb.com/title/tt3500068/'
p3309
aS'http://www.imdb.com/title/tt0271263/'
p3310
aS'http://www.imdb.com/title/tt2111383/'
p3311
aS'http://www.imdb.com/title/tt3950710/'
p3312
aS'http://www.imdb.com/title/tt3366430/'
p3313
aS'http://www.imdb.com/title/tt0322177/'
p3314
aS'http://www.imdb.com/title/tt0087170/'
p3315
aS'http://www.imdb.com/title/tt1615918/'
p3316
aS'http://www.imdb.com/title/tt0480082/'
p3317
aS'http://www.imdb.com/title/tt0077204/'
p3318
aS'http://www.imdb.com/title/tt3186878/'
p3319
aS'http://www.imdb.com/title/tt2865120/'
p3320
aS'http://www.imdb.com/title/tt0092167/'
p3321
aS'http://www.imdb.com/title/tt3801316/'
p3322
aS'http://www.imdb.com/title/tt2742242/'
p3323
aS'http://www.imdb.com/title/tt0443536/'
p3324
aS'http://www.imdb.com/title/tt1914320/'
p3325
aS'http://www.imdb.com/title/tt1966449/'
p3326
aS'http://www.imdb.com/title/tt1999167/'
p3327
aS'http://www.imdb.com/title/tt2361155/'
p3328
aS'http://www.imdb.com/title/tt0268397/'
p3329
aS'http://www.imdb.com/title/tt0205740/'
p3330
aS'http://www.imdb.com/title/tt0099748/'
p3331
aS'http://www.imdb.com/title/tt0007646/'
p3332
aS'http://www.imdb.com/title/tt0459109/'
p3333
aS'http://www.imdb.com/title/tt0056318/'
p3334
aS'http://www.imdb.com/title/tt1430607/'
p3335
aS'http://www.imdb.com/title/tt1844664/'
p3336
aS'http://www.imdb.com/title/tt3662694/'
p3337
aS'http://www.imdb.com/title/tt0142371/'
p3338
aS'http://www.imdb.com/title/tt1399070/'
p3339
aS'http://www.imdb.com/title/tt3759416/'
p3340
aS'http://www.imdb.com/title/tt1868090/'
p3341
aS'http://www.imdb.com/title/tt4839424/'
p3342
aS'http://www.imdb.com/title/tt0090633/'
p3343
aS'http://www.imdb.com/title/tt0040083/'
p3344
aS'http://www.imdb.com/title/tt1186365/'
p3345
aS'http://www.imdb.com/title/tt4644382/'
p3346
aS'http://www.imdb.com/title/tt0218108/'
p3347
aS'http://www.imdb.com/title/tt4622340/'
p3348
aS'http://www.imdb.com/title/tt0356742/'
p3349
aS'http://www.imdb.com/title/tt0457998/'
p3350
aS'http://www.imdb.com/title/tt0222783/'
p3351
aS'http://www.imdb.com/title/tt0498351/'
p3352
aS'http://www.imdb.com/title/tt0204034/'
p3353
aS'http://www.imdb.com/title/tt1762399/'
p3354
aS'http://www.imdb.com/title/tt0330994/'
p3355
aS'http://www.imdb.com/title/tt1163842/'
p3356
aS'http://www.imdb.com/title/tt0348059/'
p3357
aS'http://www.imdb.com/title/tt1566528/'
p3358
aS'http://www.imdb.com/title/tt2013293/'
p3359
aS'http://www.imdb.com/title/tt0036852/'
p3360
aS'http://www.imdb.com/title/tt3433600/'
p3361
aS'http://www.imdb.com/title/tt0327408/'
p3362
aS'http://www.imdb.com/title/tt0145721/'
p3363
aS'http://www.imdb.com/title/tt0108526/'
p3364
aS'http://www.imdb.com/title/tt4555266/'
p3365
aS'http://www.imdb.com/title/tt1987649/'
p3366
aS'http://www.imdb.com/title/tt0156411/'
p3367
aS'http://www.imdb.com/title/tt0384057/'
p3368
aS'http://www.imdb.com/title/tt4940426/'
p3369
aS'http://www.imdb.com/title/tt3455204/'
p3370
aS'http://www.imdb.com/title/tt3995732/'
p3371
aS'http://www.imdb.com/title/tt0212114/'
p3372
aS'http://www.imdb.com/title/tt2769896/'
p3373
aS'http://www.imdb.com/title/tt1780834/'
p3374
aS'http://www.imdb.com/title/tt1578273/'
p3375
aS'http://www.imdb.com/title/tt0111333/'
p3376
aS'http://www.imdb.com/title/tt0110906/'
p3377
aS'http://www.imdb.com/title/tt2329968/'
p3378
aS'http://www.imdb.com/title/tt1865364/'
p3379
aS'http://www.imdb.com/title/tt4001614/'
p3380
aS'http://www.imdb.com/title/tt3400214/'
p3381
aS'http://www.imdb.com/title/tt2953022/'
p3382
aS'http://www.imdb.com/title/tt0374091/'
p3383
aS'http://www.imdb.com/title/tt2304957/'
p3384
aS'http://www.imdb.com/title/tt0271042/'
p3385
aS'http://www.imdb.com/title/tt0237400/'
p3386
aS'http://www.imdb.com/title/tt2322457/'
p3387
aS'http://www.imdb.com/title/tt0304072/'
p3388
aS'http://www.imdb.com/title/tt2400688/'
p3389
aS'http://www.imdb.com/title/tt0131400/'
p3390
aS'http://www.imdb.com/title/tt4441760/'
p3391
aS'http://www.imdb.com/title/tt0871971/'
p3392
aS'http://www.imdb.com/title/tt0220053/'
p3393
aS'http://www.imdb.com/title/tt3309172/'
p3394
aS'http://www.imdb.com/title/tt0108069/'
p3395
aS'http://www.imdb.com/title/tt2908488/'
p3396
aS'http://www.imdb.com/title/tt0119346/'
p3397
aS'http://www.imdb.com/title/tt1996392/'
p3398
aS'http://www.imdb.com/title/tt1486648/'
p3399
aS'http://www.imdb.com/title/tt0268282/'
p3400
aS'http://www.imdb.com/title/tt0039404/'
p3401
aS'http://www.imdb.com/title/tt4641828/'
p3402
aS'http://www.imdb.com/title/tt3198652/'
p3403
aS'http://www.imdb.com/title/tt0164767/'
p3404
aS'http://www.imdb.com/title/tt0082892/'
p3405
aS'http://www.imdb.com/title/tt0113389/'
p3406
aS'http://www.imdb.com/title/tt0314166/'
p3407
aS'http://www.imdb.com/title/tt3444716/'
p3408
aS'http://www.imdb.com/title/tt3477172/'
p3409
aS'http://www.imdb.com/title/tt1158253/'
p3410
aS'http://www.imdb.com/title/tt0083931/'
p3411
aS'http://www.imdb.com/title/tt4819166/'
p3412
aS'http://www.imdb.com/title/tt2449630/'
p3413
aS'http://www.imdb.com/title/tt1189080/'
p3414
aS'http://www.imdb.com/title/tt2294521/'
p3415
aS'http://www.imdb.com/title/tt2545064/'
p3416
aS'http://www.imdb.com/title/tt3433910/'
p3417
aS'http://www.imdb.com/title/tt0145866/'
p3418
aS'http://www.imdb.com/title/tt1744879/'
p3419
aS'http://www.imdb.com/title/tt3832158/'
p3420
aS'http://www.imdb.com/title/tt0043163/'
p3421
aS'http://www.imdb.com/title/tt4258716/'
p3422
aS'http://www.imdb.com/title/tt3914362/'
p3423
aS'http://www.imdb.com/title/tt1857954/'
p3424
aS'http://www.imdb.com/title/tt0419499/'
p3425
aS'http://www.imdb.com/title/tt1381286/'
p3426
aS'http://www.imdb.com/title/tt0206367/'
p3427
aS'http://www.imdb.com/title/tt0145676/'
p3428
aS'http://www.imdb.com/title/tt3748918/'
p3429
aS'http://www.imdb.com/title/tt2007358/'
p3430
aS'http://www.imdb.com/title/tt2321301/'
p3431
aS'http://www.imdb.com/title/tt0119406/'
p3432
aS'http://www.imdb.com/title/tt0486731/'
p3433
aS'http://www.imdb.com/title/tt0087660/'
p3434
aS'http://www.imdb.com/title/tt1340708/'
p3435
aS'http://www.imdb.com/title/tt2722786/'
p3436
aS'http://www.imdb.com/title/tt0145930/'
p3437
aS'http://www.imdb.com/title/tt2931968/'
p3438
aS'http://www.imdb.com/title/tt1821415/'
p3439
aS'http://www.imdb.com/title/tt0191563/'
p3440
aS'http://www.imdb.com/title/tt3407024/'
p3441
aS'http://www.imdb.com/title/tt0059422/'
p3442
aS'http://www.imdb.com/title/tt0396555/'
p3443
aS'http://www.imdb.com/title/tt1991145/'
p3444
aS'http://www.imdb.com/title/tt3652668/'
p3445
aS'http://www.imdb.com/title/tt1896759/'
p3446
aS'http://www.imdb.com/title/tt0486893/'
p3447
aS'http://www.imdb.com/title/tt0072316/'
p3448
aS'http://www.imdb.com/title/tt1954687/'
p3449
aS'http://www.imdb.com/title/tt0366922/'
p3450
aS'http://www.imdb.com/title/tt4022252/'
p3451
aS'http://www.imdb.com/title/tt1801079/'
p3452
aS'http://www.imdb.com/title/tt0300576/'
p3453
aS'http://www.imdb.com/title/tt0118829/'
p3454
aS'http://www.imdb.com/title/tt2011215/'
p3455
aS'http://www.imdb.com/title/tt3867870/'
p3456
aS'http://www.imdb.com/title/tt0962762/'
p3457
aS'http://www.imdb.com/title/tt4385912/'
p3458
aS'http://www.imdb.com/title/tt3605702/'
p3459
aS'http://www.imdb.com/title/tt3719916/'
p3460
aS'http://www.imdb.com/title/tt4298254/'
p3461
aS'http://www.imdb.com/title/tt0469611/'
p3462
aS'http://www.imdb.com/title/tt1928341/'
p3463
aS'http://www.imdb.com/title/tt1101040/'
p3464
aS'http://www.imdb.com/title/tt0876287/'
p3465
aS'http://www.imdb.com/title/tt1708424/'
p3466
aS'http://www.imdb.com/title/tt2293640/'
p3467
aS'http://www.imdb.com/title/tt0125494/'
p3468
aS'http://www.imdb.com/title/tt4250960/'
p3469
aS'http://www.imdb.com/title/tt0232686/'
p3470
aS'http://www.imdb.com/title/tt0094625/'
p3471
aS'http://www.imdb.com/title/tt1345776/'
p3472
aS'http://www.imdb.com/title/tt0140832/'
p3473
aS'http://www.imdb.com/title/tt2652476/'
p3474
aS'http://www.imdb.com/title/tt4278144/'
p3475
aS'http://www.imdb.com/title/tt0088885/'
p3476
aS'http://www.imdb.com/title/tt3433622/'
p3477
aS'http://www.imdb.com/title/tt0276073/'
p3478
aS'http://www.imdb.com/title/tt3645582/'
p3479
aS'http://www.imdb.com/title/tt0070165/'
p3480
aS'http://www.imdb.com/title/tt1568836/'
p3481
aS'http://www.imdb.com/title/tt0166350/'
p3482
aS'http://www.imdb.com/title/tt1087860/'
p3483
aS'http://www.imdb.com/title/tt2155428/'
p3484
aS'http://www.imdb.com/title/tt0168856/'
p3485
aS'http://www.imdb.com/title/tt0286244/'
p3486
aS'http://www.imdb.com/title/tt0296620/'
p3487
aS'http://www.imdb.com/title/tt4001642/'
p3488
aS'http://www.imdb.com/title/tt3007600/'
p3489
aS'http://www.imdb.com/title/tt1623674/'
p3490
aS'http://www.imdb.com/title/tt2498062/'
p3491
aS'http://www.imdb.com/title/tt0902265/'
p3492
aS'http://www.imdb.com/title/tt3392330/'
p3493
aS'http://www.imdb.com/title/tt0091123/'
p3494
aS'http://www.imdb.com/title/tt0096842/'
p3495
aS'http://www.imdb.com/title/tt0090658/'
p3496
aS'http://www.imdb.com/title/tt0385700/'
p3497
aS'http://www.imdb.com/title/tt0407121/'
p3498
aS'http://www.imdb.com/title/tt1625335/'
p3499
aS'http://www.imdb.com/title/tt0251985/'
p3500
aS'http://www.imdb.com/title/tt0172535/'
p3501
aS'http://www.imdb.com/title/tt1333039/'
p3502
aS'http://www.imdb.com/title/tt4697944/'
p3503
aS'http://www.imdb.com/title/tt2710884/'
p3504
aS'http://www.imdb.com/title/tt0078477/'
p3505
aS'http://www.imdb.com/title/tt2657636/'
p3506
aS'http://www.imdb.com/title/tt0084458/'
p3507
aS'http://www.imdb.com/title/tt1974262/'
p3508
aS'http://www.imdb.com/title/tt0456980/'
p3509
aS'http://www.imdb.com/title/tt0142307/'
p3510
aS'http://www.imdb.com/title/tt3014580/'
p3511
aS'http://www.imdb.com/title/tt0209448/'
p3512
aS'http://www.imdb.com/title/tt0367172/'
p3513
aS'http://www.imdb.com/title/tt2378443/'
p3514
aS'http://www.imdb.com/title/tt0990372/'
p3515
aS'http://www.imdb.com/title/tt0145654/'
p3516
aS'http://www.imdb.com/title/tt0145927/'
p3517
aS'http://www.imdb.com/title/tt0089206/'
p3518
aS'http://www.imdb.com/title/tt0188530/'
p3519
aS'http://www.imdb.com/title/tt3152592/'
p3520
aS'http://www.imdb.com/title/tt0270237/'
p3521
aS'http://www.imdb.com/title/tt1873575/'
p3522
aS'http://www.imdb.com/title/tt4337072/'
p3523
aS'http://www.imdb.com/title/tt3303446/'
p3524
aS'http://www.imdb.com/title/tt0414853/'
p3525
aS'http://www.imdb.com/title/tt0065588/'
p3526
aS'http://www.imdb.com/title/tt1619890/'
p3527
aS'http://www.imdb.com/title/tt0054662/'
p3528
aS'http://www.imdb.com/title/tt0847478/'
p3529
aS'http://www.imdb.com/title/tt2234530/'
p3530
aS'http://www.imdb.com/title/tt0129167/'
p3531
aS'http://www.imdb.com/title/tt3174208/'
p3532
aS'http://www.imdb.com/title/tt1946502/'
p3533
aS'http://www.imdb.com/title/tt1734135/'
p3534
aS'http://www.imdb.com/title/tt0119493/'
p3535
aS'http://www.imdb.com/title/tt0161730/'
p3536
aS'http://www.imdb.com/title/tt0997084/'
p3537
aS'http://www.imdb.com/title/tt2086830/'
p3538
aS'http://www.imdb.com/title/tt1502811/'
p3539
aS'http://www.imdb.com/title/tt3758350/'
p3540
aS'http://www.imdb.com/title/tt1732650/'
p3541
aS'http://www.imdb.com/title/tt3505928/'
p3542
aS'http://www.imdb.com/title/tt1838731/'
p3543
aS'http://www.imdb.com/title/tt1485096/'
p3544
aS'http://www.imdb.com/title/tt2846622/'
p3545
aS'http://www.imdb.com/title/tt4670000/'
p3546
aS'http://www.imdb.com/title/tt2333658/'
p3547
aS'http://www.imdb.com/title/tt0117715/'
p3548
aS'http://www.imdb.com/title/tt1587156/'
p3549
aS'http://www.imdb.com/title/tt0146249/'
p3550
aS'http://www.imdb.com/title/tt0933763/'
p3551
aS'http://www.imdb.com/title/tt1216475/'
p3552
aS'http://www.imdb.com/title/tt0459263/'
p3553
aS'http://www.imdb.com/title/tt3375382/'
p3554
aS'http://www.imdb.com/title/tt3486626/'
p3555
aS'http://www.imdb.com/title/tt0063852/'
p3556
aS'http://www.imdb.com/title/tt0102813/'
p3557
aS'http://www.imdb.com/title/tt0368667/'
p3558
aS'http://www.imdb.com/title/tt2400361/'
p3559
aS'http://www.imdb.com/title/tt1762364/'
p3560
aS'http://www.imdb.com/title/tt2096673/'
p3561
aS'http://www.imdb.com/title/tt0806053/'
p3562
aS'http://www.imdb.com/title/tt0176833/'
p3563
aS'http://www.imdb.com/title/tt1189085/'
p3564
aS'http://www.imdb.com/title/tt0811605/'
p3565
aS'http://www.imdb.com/title/tt0283476/'
p3566
aS'http://www.imdb.com/title/tt2261287/'
p3567
aS'http://www.imdb.com/title/tt0098077/'
p3568
aS'http://www.imdb.com/title/tt1827387/'
p3569
aS'http://www.imdb.com/title/tt0184005/'
p3570
aS'http://www.imdb.com/title/tt4109240/'
p3571
aS'http://www.imdb.com/title/tt0127332/'
p3572
aS'http://www.imdb.com/title/tt4886780/'
p3573
aS'http://www.imdb.com/title/tt0230229/'
p3574
aS'http://www.imdb.com/title/tt0188535/'
p3575
aS'http://www.imdb.com/title/tt0086520/'
p3576
aS'http://www.imdb.com/title/tt1286509/'
p3577
aS'http://www.imdb.com/title/tt4837114/'
p3578
aS'http://www.imdb.com/title/tt0121387/'
p3579
aS'http://www.imdb.com/title/tt0098259/'
p3580
aS'http://www.imdb.com/title/tt0790735/'
p3581
aS'http://www.imdb.com/title/tt1866142/'
p3582
aS'http://www.imdb.com/title/tt0412026/'
p3583
aS'http://www.imdb.com/title/tt4161520/'
p3584
aS'http://www.imdb.com/title/tt0961097/'
p3585
aS'http://www.imdb.com/title/tt0264438/'
p3586
aS'http://www.imdb.com/title/tt1127218/'
p3587
aS'http://www.imdb.com/title/tt0459131/'
p3588
aS'http://www.imdb.com/title/tt0385880/'
p3589
aS'http://www.imdb.com/title/tt3038052/'
p3590
aS'http://www.imdb.com/title/tt1612318/'
p3591
aS'http://www.imdb.com/title/tt0234208/'
p3592
aS'http://www.imdb.com/title/tt1243946/'
p3593
aS'http://www.imdb.com/title/tt0278789/'
p3594
aS'http://www.imdb.com/title/tt0280371/'
p3595
aS'http://www.imdb.com/title/tt0038541/'
p3596
aS'http://www.imdb.com/title/tt0114563/'
p3597
aS'http://www.imdb.com/title/tt0127030/'
p3598
aS'http://www.imdb.com/title/tt2066048/'
p3599
aS'http://www.imdb.com/title/tt2166109/'
p3600
aS'http://www.imdb.com/title/tt4779206/'
p3601
aS'http://www.imdb.com/title/tt0284184/'
p3602
aS'http://www.imdb.com/title/tt0076929/'
p3603
aS'http://www.imdb.com/title/tt1047015/'
p3604
aS'http://www.imdb.com/title/tt0250406/'
p3605
aS'http://www.imdb.com/title/tt3624632/'
p3606
aS'http://www.imdb.com/title/tt0061852/'
p3607
aS'http://www.imdb.com/title/tt0131621/'
p3608
aS'http://www.imdb.com/title/tt0064806/'
p3609
aS'http://www.imdb.com/title/tt1619815/'
p3610
aS'http://www.imdb.com/title/tt1532426/'
p3611
aS'http://www.imdb.com/title/tt0401233/'
p3612
aS'http://www.imdb.com/title/tt0217483/'
p3613
aS'http://www.imdb.com/title/tt2413696/'
p3614
aS'http://www.imdb.com/title/tt3845670/'
p3615
aS'http://www.imdb.com/title/tt4781308/'
p3616
aS'http://www.imdb.com/title/tt1817721/'
p3617
aS'http://www.imdb.com/title/tt0406546/'
p3618
aS'http://www.imdb.com/title/tt0070326/'
p3619
aS'http://www.imdb.com/title/tt2108529/'
p3620
aS'http://www.imdb.com/title/tt4424602/'
p3621
aS'http://www.imdb.com/title/tt0196884/'
p3622
aS'http://www.imdb.com/title/tt2275080/'
p3623
aS'http://www.imdb.com/title/tt0233691/'
p3624
aS'http://www.imdb.com/title/tt3216346/'
p3625
aS'http://www.imdb.com/title/tt4154982/'
p3626
aS'http://www.imdb.com/title/tt2509428/'
p3627
aS'http://www.imdb.com/title/tt0184516/'
p3628
aS'http://www.imdb.com/title/tt0173840/'
p3629
aS'http://www.imdb.com/title/tt0959324/'
p3630
aS'http://www.imdb.com/title/tt3398268/'
p3631
aS'http://www.imdb.com/title/tt0774530/'
p3632
aS'http://www.imdb.com/title/tt1809274/'
p3633
aS'http://www.imdb.com/title/tt2321555/'
p3634
aS'http://www.imdb.com/title/tt4332764/'
p3635
aS'http://www.imdb.com/title/tt1287507/'
p3636
aS'http://www.imdb.com/title/tt1764329/'
p3637
aS'http://www.imdb.com/title/tt0074705/'
p3638
aS'http://www.imdb.com/title/tt1176453/'
p3639
aS'http://www.imdb.com/title/tt0241436/'
p3640
aS'http://www.imdb.com/title/tt0488584/'
p3641
aS'http://www.imdb.com/title/tt4218632/'
p3642
aS'http://www.imdb.com/title/tt4835618/'
p3643
aS'http://www.imdb.com/title/tt0065435/'
p3644
aS'http://www.imdb.com/title/tt4871748/'
p3645
aS'http://www.imdb.com/title/tt0164564/'
p3646
aS'http://www.imdb.com/title/tt0164724/'
p3647
aS'http://www.imdb.com/title/tt0084237/'
p3648
aS'http://www.imdb.com/title/tt3794204/'
p3649
aS'http://www.imdb.com/title/tt3775590/'
p3650
aS'http://www.imdb.com/title/tt0167429/'
p3651
aS'http://www.imdb.com/title/tt0201190/'
p3652
aS'http://www.imdb.com/title/tt4164744/'
p3653
aS'http://www.imdb.com/title/tt2404375/'
p3654
aS'http://www.imdb.com/title/tt1430622/'
p3655
aS'http://www.imdb.com/title/tt2859222/'
p3656
aS'http://www.imdb.com/title/tt3407982/'
p3657
aS'http://www.imdb.com/title/tt1185834/'
p3658
aS'http://www.imdb.com/title/tt0079293/'
p3659
aS'http://www.imdb.com/title/tt1453242/'
p3660
aS'http://www.imdb.com/title/tt0291350/'
p3661
aS'http://www.imdb.com/title/tt1806784/'
p3662
aS'http://www.imdb.com/title/tt2317103/'
p3663
aS'http://www.imdb.com/title/tt0109872/'
p3664
aS'http://www.imdb.com/title/tt0041139/'
p3665
aS'http://www.imdb.com/title/tt0036853/'
p3666
aS'http://www.imdb.com/title/tt1710570/'
p3667
aS'http://www.imdb.com/title/tt0085218/'
p3668
aS'http://www.imdb.com/title/tt0368921/'
p3669
aS'http://www.imdb.com/title/tt3239604/'
p3670
aS'http://www.imdb.com/title/tt0206827/'
p3671
aS'http://www.imdb.com/title/tt0217452/'
p3672
aS'http://www.imdb.com/title/tt0858486/'
p3673
aS'http://www.imdb.com/title/tt1213012/'
p3674
aS'http://www.imdb.com/title/tt0475722/'
p3675
aS'http://www.imdb.com/title/tt2253947/'
p3676
aS'http://www.imdb.com/title/tt0354588/'
p3677
aS'http://www.imdb.com/title/tt1576423/'
p3678
aS'http://www.imdb.com/title/tt0145850/'
p3679
aS'http://www.imdb.com/title/tt0211627/'
p3680
aS'http://www.imdb.com/title/tt0205451/'
p3681
aS'http://www.imdb.com/title/tt0086224/'
p3682
aS'http://www.imdb.com/title/tt1894416/'
p3683
aS'http://www.imdb.com/title/tt0037654/'
p3684
aS'http://www.imdb.com/title/tt0334051/'
p3685
aS'http://www.imdb.com/title/tt2145759/'
p3686
aS'http://www.imdb.com/title/tt2911342/'
p3687
aS'http://www.imdb.com/title/tt3422716/'
p3688
aS'http://www.imdb.com/title/tt0951333/'
p3689
aS'http://www.imdb.com/title/tt2566866/'
p3690
aS'http://www.imdb.com/title/tt2131626/'
p3691
aS'http://www.imdb.com/title/tt0430377/'
p3692
aS'http://www.imdb.com/title/tt2996126/'
p3693
aS'http://www.imdb.com/title/tt3715848/'
p3694
aS'http://www.imdb.com/title/tt4577440/'
p3695
aS'http://www.imdb.com/title/tt1713548/'
p3696
aS'http://www.imdb.com/title/tt2638036/'
p3697
aS'http://www.imdb.com/title/tt1673702/'
p3698
aS'http://www.imdb.com/title/tt1015980/'
p3699
aS'http://www.imdb.com/title/tt0892769/'
p3700
aS'http://www.imdb.com/title/tt2846156/'
p3701
aS'http://www.imdb.com/title/tt2399527/'
p3702
aS'http://www.imdb.com/title/tt0276265/'
p3703
aS'http://www.imdb.com/title/tt2034832/'
p3704
aS'http://www.imdb.com/title/tt0144608/'
p3705
aS'http://www.imdb.com/title/tt1144950/'
p3706
aS'http://www.imdb.com/title/tt2390267/'
p3707
aS'http://www.imdb.com/title/tt1709652/'
p3708
aS'http://www.imdb.com/title/tt0387472/'
p3709
aS'http://www.imdb.com/title/tt1112289/'
p3710
aS'http://www.imdb.com/title/tt1773063/'
p3711
aS'http://www.imdb.com/title/tt0096283/'
p3712
aS'http://www.imdb.com/title/tt0276226/'
p3713
aS'http://www.imdb.com/title/tt2251275/'
p3714
aS'http://www.imdb.com/title/tt0184748/'
p3715
aS'http://www.imdb.com/title/tt1795621/'
p3716
aS'http://www.imdb.com/title/tt0090834/'
p3717
aS'http://www.imdb.com/title/tt4872206/'
p3718
aS'http://www.imdb.com/title/tt1454020/'
p3719
aS'http://www.imdb.com/title/tt0145755/'
p3720
aS'http://www.imdb.com/title/tt0156463/'
p3721
aS'http://www.imdb.com/title/tt0179955/'
p3722
aS'http://www.imdb.com/title/tt0892062/'
p3723
aS'http://www.imdb.com/title/tt0169951/'
p3724
aS'http://www.imdb.com/title/tt1210117/'
p3725
aS'http://www.imdb.com/title/tt2772570/'
p3726
aS'http://www.imdb.com/title/tt0482500/'
p3727
aS'http://www.imdb.com/title/tt1155651/'
p3728
aS'http://www.imdb.com/title/tt1206326/'
p3729
aS'http://www.imdb.com/title/tt0158113/'
p3730
aS'http://www.imdb.com/title/tt0356423/'
p3731
aS'http://www.imdb.com/title/tt3424100/'
p3732
aS'http://www.imdb.com/title/tt0331508/'
p3733
aS'http://www.imdb.com/title/tt2816044/'
p3734
aS'http://www.imdb.com/title/tt0101927/'
p3735
aS'http://www.imdb.com/title/tt1856022/'
p3736
aS'http://www.imdb.com/title/tt1429433/'
p3737
aS'http://www.imdb.com/title/tt1703049/'
p3738
aS'http://www.imdb.com/title/tt1731145/'
p3739
aS'http://www.imdb.com/title/tt2336326/'
p3740
aS'http://www.imdb.com/title/tt0344293/'
p3741
aS'http://www.imdb.com/title/tt0071448/'
p3742
aS'http://www.imdb.com/title/tt1594972/'
p3743
aS'http://www.imdb.com/title/tt1864227/'
p3744
aS'http://www.imdb.com/title/tt0142244/'
p3745
aS'http://www.imdb.com/title/tt4846282/'
p3746
aS'http://www.imdb.com/title/tt3490438/'
p3747
aS'http://www.imdb.com/title/tt0279487/'
p3748
aS'http://www.imdb.com/title/tt4235644/'
p3749
aS'http://www.imdb.com/title/tt1966446/'
p3750
aS'http://www.imdb.com/title/tt0145899/'
p3751
aS'http://www.imdb.com/title/tt0400900/'
p3752
aS'http://www.imdb.com/title/tt2076142/'
p3753
aS'http://www.imdb.com/title/tt1621835/'
p3754
aS'http://www.imdb.com/title/tt3962802/'
p3755
aS'http://www.imdb.com/title/tt1948614/'
p3756
aS'http://www.imdb.com/title/tt3416828/'
p3757
aS'http://www.imdb.com/title/tt0185337/'
p3758
aS'http://www.imdb.com/title/tt0972542/'
p3759
aS'http://www.imdb.com/title/tt0478788/'
p3760
aS'http://www.imdb.com/title/tt3079368/'
p3761
aS'http://www.imdb.com/title/tt0452130/'
p3762
aS'http://www.imdb.com/title/tt0333656/'
p3763
aS'http://www.imdb.com/title/tt0090667/'
p3764
aS'http://www.imdb.com/title/tt0395947/'
p3765
aS'http://www.imdb.com/title/tt3573796/'
p3766
aS'http://www.imdb.com/title/tt0014304/'
p3767
aS'http://www.imdb.com/title/tt1290393/'
p3768
aS'http://www.imdb.com/title/tt3327856/'
p3769
aS'http://www.imdb.com/title/tt1576379/'
p3770
aS'http://www.imdb.com/title/tt2936864/'
p3771
aS'http://www.imdb.com/title/tt1371638/'
p3772
aS'http://www.imdb.com/title/tt1284996/'
p3773
aS'http://www.imdb.com/title/tt1485763/'
p3774
aS'http://www.imdb.com/title/tt1483797/'
p3775
aS'http://www.imdb.com/title/tt0145779/'
p3776
aS'http://www.imdb.com/title/tt0158658/'
p3777
aS'http://www.imdb.com/title/tt2317165/'
p3778
aS'http://www.imdb.com/title/tt2023519/'
p3779
aS'http://www.imdb.com/title/tt2858544/'
p3780
aS'http://www.imdb.com/title/tt2510822/'
p3781
aS'http://www.imdb.com/title/tt1701992/'
p3782
aS'http://www.imdb.com/title/tt2141927/'
p3783
aS'http://www.imdb.com/title/tt0067002/'
p3784
aS'http://www.imdb.com/title/tt1006926/'
p3785
aS'http://www.imdb.com/title/tt1950327/'
p3786
aS'http://www.imdb.com/title/tt2220024/'
p3787
aS'http://www.imdb.com/title/tt1147524/'
p3788
aS'http://www.imdb.com/title/tt3073326/'
p3789
aS'http://www.imdb.com/title/tt4688658/'
p3790
aS'http://www.imdb.com/title/tt1878842/'
p3791
aS'http://www.imdb.com/title/tt0356937/'
p3792
aS'http://www.imdb.com/title/tt4517624/'
p3793
aS'http://www.imdb.com/title/tt3628012/'
p3794
aS'http://www.imdb.com/title/tt0232622/'
p3795
aS'http://www.imdb.com/title/tt0375148/'
p3796
aS'http://www.imdb.com/title/tt3956964/'
p3797
aS'http://www.imdb.com/title/tt2752584/'
p3798
aS'http://www.imdb.com/title/tt2359269/'
p3799
aS'http://www.imdb.com/title/tt3668234/'
p3800
aS'http://www.imdb.com/title/tt0306474/'
p3801
aS'http://www.imdb.com/title/tt0831888/'
p3802
aS'http://www.imdb.com/title/tt1189006/'
p3803
aS'http://www.imdb.com/title/tt4899044/'
p3804
aS'http://www.imdb.com/title/tt2505470/'
p3805
aS'http://www.imdb.com/title/tt2857458/'
p3806
aS'http://www.imdb.com/title/tt0057093/'
p3807
aS'http://www.imdb.com/title/tt0085390/'
p3808
aS'http://www.imdb.com/title/tt4461370/'
p3809
aS'http://www.imdb.com/title/tt1294788/'
p3810
aS'http://www.imdb.com/title/tt0266543/'
p3811
aS'http://www.imdb.com/title/tt0159508/'
p3812
aS'http://www.imdb.com/title/tt2609556/'
p3813
aS'http://www.imdb.com/title/tt1037116/'
p3814
aS'http://www.imdb.com/title/tt4339226/'
p3815
aS'http://www.imdb.com/title/tt4788606/'
p3816
aS'http://www.imdb.com/title/tt4442090/'
p3817
aS'http://www.imdb.com/title/tt1539999/'
p3818
aS'http://www.imdb.com/title/tt2009504/'
p3819
aS'http://www.imdb.com/title/tt1814809/'
p3820
aS'http://www.imdb.com/title/tt0310790/'
p3821
aS'http://www.imdb.com/title/tt0070608/'
p3822
aS'http://www.imdb.com/title/tt0031397/'
p3823
aS'http://www.imdb.com/title/tt3755716/'
p3824
aS'http://www.imdb.com/title/tt1402488/'
p3825
aS'http://www.imdb.com/title/tt0022855/'
p3826
aS'http://www.imdb.com/title/tt0398286/'
p3827
aS'http://www.imdb.com/title/tt0121164/'
p3828
aS'http://www.imdb.com/title/tt0358013/'
p3829
aS'http://www.imdb.com/title/tt0270409/'
p3830
aS'http://www.imdb.com/title/tt0099410/'
p3831
aS'http://www.imdb.com/title/tt1710994/'
p3832
aS'http://www.imdb.com/title/tt0297215/'
p3833
aS'http://www.imdb.com/title/tt0156664/'
p3834
aS'http://www.imdb.com/title/tt2871776/'
p3835
aS'http://www.imdb.com/title/tt3480110/'
p3836
aS'http://www.imdb.com/title/tt1386652/'
p3837
aS'http://www.imdb.com/title/tt1087858/'
p3838
aS'http://www.imdb.com/title/tt1865490/'
p3839
aS'http://www.imdb.com/title/tt0079833/'
p3840
aS'http://www.imdb.com/title/tt0945355/'
p3841
aS'http://www.imdb.com/title/tt1272051/'
p3842
aS'http://www.imdb.com/title/tt0249991/'
p3843
aS'http://www.imdb.com/title/tt4150316/'
p3844
aS'http://www.imdb.com/title/tt3885932/'
p3845
aS'http://www.imdb.com/title/tt1147518/'
p3846
aS'http://www.imdb.com/title/tt0102371/'
p3847
aS'http://www.imdb.com/title/tt0884726/'
p3848
aS'http://www.imdb.com/title/tt0399085/'
p3849
aS'http://www.imdb.com/title/tt1189084/'
p3850
aS'http://www.imdb.com/title/tt0270510/'
p3851
aS'http://www.imdb.com/title/tt1171258/'
p3852
aS'http://www.imdb.com/title/tt0330830/'
p3853
aS'http://www.imdb.com/title/tt0084315/'
p3854
aS'http://www.imdb.com/title/tt1613055/'
p3855
aS'http://www.imdb.com/title/tt1003009/'
p3856
aS'http://www.imdb.com/title/tt0979942/'
p3857
aS'http://www.imdb.com/title/tt1735221/'
p3858
aS'http://www.imdb.com/title/tt3176926/'
p3859
aS'http://www.imdb.com/title/tt1484065/'
p3860
aS'http://www.imdb.com/title/tt0829089/'
p3861
aS'http://www.imdb.com/title/tt0327597/'
p3862
aS'http://www.imdb.com/title/tt0146251/'
p3863
aS'http://www.imdb.com/title/tt0219777/'
p3864
aS'http://www.imdb.com/title/tt0775489/'
p3865
aS'http://www.imdb.com/title/tt2284790/'
p3866
aS'http://www.imdb.com/title/tt0050604/'
p3867
aS'http://www.imdb.com/title/tt0219214/'
p3868
aS'http://www.imdb.com/title/tt0091889/'
p3869
aS'http://www.imdb.com/title/tt3154906/'
p3870
aS'http://www.imdb.com/title/tt0174324/'
p3871
aS'http://www.imdb.com/title/tt0146063/'
p3872
aS'http://www.imdb.com/title/tt2321492/'
p3873
aS'http://www.imdb.com/title/tt4168022/'
p3874
aS'http://www.imdb.com/title/tt0146457/'
p3875
aS'http://www.imdb.com/title/tt2860742/'
p3876
aS'http://www.imdb.com/title/tt1187013/'
p3877
aS'http://www.imdb.com/title/tt0170095/'
p3878
aS'http://www.imdb.com/title/tt2900934/'
p3879
aS'http://www.imdb.com/title/tt1118683/'
p3880
aS'http://www.imdb.com/title/tt0240425/'
p3881
aS'http://www.imdb.com/title/tt0461770/'
p3882
aS'http://www.imdb.com/title/tt1692191/'
p3883
aS'http://www.imdb.com/title/tt2439190/'
p3884
aS'http://www.imdb.com/title/tt1857883/'
p3885
aS'http://www.imdb.com/title/tt1971517/'
p3886
aS'http://www.imdb.com/title/tt3689894/'
p3887
aS'http://www.imdb.com/title/tt0193995/'
p3888
aS'http://www.imdb.com/title/tt3280730/'
p3889
aS'http://www.imdb.com/title/tt1726641/'
p3890
aS'http://www.imdb.com/title/tt0387162/'
p3891
aS'http://www.imdb.com/title/tt0088188/'
p3892
aS'http://www.imdb.com/title/tt0258642/'
p3893
aS'http://www.imdb.com/title/tt2457282/'
p3894
aS'http://www.imdb.com/title/tt1178592/'
p3895
aS'http://www.imdb.com/title/tt2091256/'
p3896
aS'http://www.imdb.com/title/tt0021025/'
p3897
aS'http://www.imdb.com/title/tt3791746/'
p3898
aS'http://www.imdb.com/title/tt0333215/'
p3899
aS'http://www.imdb.com/title/tt1065099/'
p3900
aS'http://www.imdb.com/title/tt2914892/'
p3901
aS'http://www.imdb.com/title/tt1695823/'
p3902
aS'http://www.imdb.com/title/tt3205010/'
p3903
aS'http://www.imdb.com/title/tt3283754/'
p3904
aS'http://www.imdb.com/title/tt2836354/'
p3905
aS'http://www.imdb.com/title/tt4320236/'
p3906
aS'http://www.imdb.com/title/tt0078495/'
p3907
aS'http://www.imdb.com/title/tt1828224/'
p3908
aS'http://www.imdb.com/title/tt1308650/'
p3909
aS'http://www.imdb.com/title/tt0347149/'
p3910
aS'http://www.imdb.com/title/tt2311880/'
p3911
aS'http://www.imdb.com/title/tt1110630/'
p3912
aS'http://www.imdb.com/title/tt0086489/'
p3913
aS'http://www.imdb.com/title/tt0160775/'
p3914
aS'http://www.imdb.com/title/tt4871162/'
p3915
aS'http://www.imdb.com/title/tt0331314/'
p3916
aS'http://www.imdb.com/title/tt0860907/'
p3917
aS'http://www.imdb.com/title/tt0348060/'
p3918
aS'http://www.imdb.com/title/tt0191400/'
p3919
aS'http://www.imdb.com/title/tt0046297/'
p3920
aS'http://www.imdb.com/title/tt1813344/'
p3921
aS'http://www.imdb.com/title/tt4651380/'
p3922
aS'http://www.imdb.com/title/tt0431838/'
p3923
aS'http://www.imdb.com/title/tt0460907/'
p3924
aS'http://www.imdb.com/title/tt0234458/'
p3925
aS'http://www.imdb.com/title/tt0295437/'
p3926
aS'http://www.imdb.com/title/tt1814830/'
p3927
aS'http://www.imdb.com/title/tt0321566/'
p3928
aS'http://www.imdb.com/title/tt0087544/'
p3929
aS'http://www.imdb.com/title/tt1147516/'
p3930
aS'http://www.imdb.com/title/tt0114108/'
p3931
aS'http://www.imdb.com/title/tt1948039/'
p3932
aS'http://www.imdb.com/title/tt1430605/'
p3933
aS'http://www.imdb.com/title/tt0073000/'
p3934
aS'http://www.imdb.com/title/tt0100367/'
p3935
aS'http://www.imdb.com/title/tt1384927/'
p3936
aS'http://www.imdb.com/title/tt0353824/'
p3937
aS'http://www.imdb.com/title/tt2918988/'
p3938
aS'http://www.imdb.com/title/tt3794354/'
p3939
aS'http://www.imdb.com/title/tt1753855/'
p3940
aS'http://www.imdb.com/title/tt2047732/'
p3941
aS'http://www.imdb.com/title/tt0796232/'
p3942
aS'http://www.imdb.com/title/tt1891845/'
p3943
aS'http://www.imdb.com/title/tt1747913/'
p3944
aS'http://www.imdb.com/title/tt1880341/'
p3945
aS'http://www.imdb.com/title/tt0249817/'
p3946
aS'http://www.imdb.com/title/tt0424095/'
p3947
aS'http://www.imdb.com/title/tt0070544/'
p3948
aS'http://www.imdb.com/title/tt2555422/'
p3949
aS'http://www.imdb.com/title/tt0036854/'
p3950
aS'http://www.imdb.com/title/tt0112274/'
p3951
aS'http://www.imdb.com/title/tt0400717/'
p3952
aS'http://www.imdb.com/title/tt4762698/'
p3953
aS'http://www.imdb.com/title/tt1085759/'
p3954
aS'http://www.imdb.com/title/tt0084564/'
p3955
aS'http://www.imdb.com/title/tt0159511/'
p3956
aS'http://www.imdb.com/title/tt1254656/'
p3957
aS'http://www.imdb.com/title/tt0097638/'
p3958
aS'http://www.imdb.com/title/tt1867067/'
p3959
aS'http://www.imdb.com/title/tt0179657/'
p3960
aS'http://www.imdb.com/title/tt0119260/'
p3961
aS'http://www.imdb.com/title/tt0102560/'
p3962
aS'http://www.imdb.com/title/tt1753729/'
p3963
aS'http://www.imdb.com/title/tt2233356/'
p3964
aS'http://www.imdb.com/title/tt0056482/'
p3965
aS'http://www.imdb.com/title/tt1345450/'
p3966
aS'http://www.imdb.com/title/tt1843902/'
p3967
aS'http://www.imdb.com/title/tt3043830/'
p3968
aS'http://www.imdb.com/title/tt1990284/'
p3969
aS'http://www.imdb.com/title/tt1369684/'
p3970
aS'http://www.imdb.com/title/tt1534332/'
p3971
aS'http://www.imdb.com/title/tt2861550/'
p3972
aS'http://www.imdb.com/title/tt0093896/'
p3973
aS'http://www.imdb.com/title/tt0120762/'
p3974
aS'http://www.imdb.com/title/tt2070831/'
p3975
aS'http://www.imdb.com/title/tt2097333/'
p3976
aS'http://www.imdb.com/title/tt2690678/'
p3977
aS'http://www.imdb.com/title/tt1351113/'
p3978
aS'http://www.imdb.com/title/tt0810043/'
p3979
aS'http://www.imdb.com/title/tt0236451/'
p3980
aS'http://www.imdb.com/title/tt2171416/'
p3981
aS'http://www.imdb.com/title/tt0476680/'
p3982
aS'http://www.imdb.com/title/tt0396659/'
p3983
aS'http://www.imdb.com/title/tt1183352/'
p3984
aS'http://www.imdb.com/title/tt3072736/'
p3985
aS'http://www.imdb.com/title/tt0818257/'
p3986
aS'http://www.imdb.com/title/tt2139689/'
p3987
aS'http://www.imdb.com/title/tt1092581/'
p3988
aS'http://www.imdb.com/title/tt1623288/'
p3989
aS'http://www.imdb.com/title/tt0296161/'
p3990
aS'http://www.imdb.com/title/tt4540620/'
p3991
aS'http://www.imdb.com/title/tt1380078/'
p3992
aS'http://www.imdb.com/title/tt1719665/'
p3993
aS'http://www.imdb.com/title/tt0036849/'
p3994
aS'http://www.imdb.com/title/tt0228064/'
p3995
aS'http://www.imdb.com/title/tt0277032/'
p3996
aS'http://www.imdb.com/title/tt0185389/'
p3997
aS'http://www.imdb.com/title/tt0226761/'
p3998
aS'http://www.imdb.com/title/tt3978744/'
p3999
aS'http://www.imdb.com/title/tt2156981/'
p4000
aS'http://www.imdb.com/title/tt1091821/'
p4001
aS'http://www.imdb.com/title/tt0037647/'
p4002
aS'http://www.imdb.com/title/tt3804810/'
p4003
aS'http://www.imdb.com/title/tt4513762/'
p4004
aS'http://www.imdb.com/title/tt0204199/'
p4005
aS'http://www.imdb.com/title/tt0844471/'
p4006
aS'http://www.imdb.com/title/tt2572196/'
p4007
aS'http://www.imdb.com/title/tt5029776/'
p4008
aS'http://www.imdb.com/title/tt1180304/'
p4009
aS'http://www.imdb.com/title/tt0378100/'
p4010
aS'http://www.imdb.com/title/tt3600950/'
p4011
aS'http://www.imdb.com/title/tt3758702/'
p4012
aS'http://www.imdb.com/title/tt0184596/'
p4013
aS'http://www.imdb.com/title/tt1703048/'
p4014
aS'http://www.imdb.com/title/tt0844353/'
p4015
aS'http://www.imdb.com/title/tt0328327/'
p4016
aS'http://www.imdb.com/title/tt4729312/'
p4017
aS'http://www.imdb.com/title/tt1839494/'
p4018
aS'http://www.imdb.com/title/tt2120103/'
p4019
aS'http://www.imdb.com/title/tt3887158/'
p4020
aS'http://www.imdb.com/title/tt3534078/'
p4021
aS'http://www.imdb.com/title/tt1851909/'
p4022
aS'http://www.imdb.com/title/tt2271315/'
p4023
aS'http://www.imdb.com/title/tt0135559/'
p4024
aS'http://www.imdb.com/title/tt0265632/'
p4025
aS'http://www.imdb.com/title/tt2369119/'
p4026
aS'http://www.imdb.com/title/tt1776055/'
p4027
aS'http://www.imdb.com/title/tt4982154/'
p4028
aS'http://www.imdb.com/title/tt4249242/'
p4029
aS'http://www.imdb.com/title/tt0423294/'
p4030
aS'http://www.imdb.com/title/tt3842606/'
p4031
aS'http://www.imdb.com/title/tt4501334/'
p4032
aS'http://www.imdb.com/title/tt0027712/'
p4033
aS'http://www.imdb.com/title/tt0325798/'
p4034
aS'http://www.imdb.com/title/tt1831837/'
p4035
aS'http://www.imdb.com/title/tt2120764/'
p4036
aS'http://www.imdb.com/title/tt1137438/'
p4037
aS'http://www.imdb.com/title/tt2277196/'
p4038
aS'http://www.imdb.com/title/tt2709768/'
p4039
aS'http://www.imdb.com/title/tt0457341/'
p4040
aS'http://www.imdb.com/title/tt2101491/'
p4041
aS'http://www.imdb.com/title/tt1105775/'
p4042
aS'http://www.imdb.com/title/tt0061069/'
p4043
aS'http://www.imdb.com/title/tt0472181/'
p4044
aS'http://www.imdb.com/title/tt1305678/'
p4045
aS'http://www.imdb.com/title/tt0361089/'
p4046
aS'http://www.imdb.com/title/tt1592504/'
p4047
aS'http://www.imdb.com/title/tt1580005/'
p4048
aS'http://www.imdb.com/title/tt1455676/'
p4049
aS'http://www.imdb.com/title/tt0862815/'
p4050
aS'http://www.imdb.com/title/tt3757838/'
p4051
aS'http://www.imdb.com/title/tt1193627/'
p4052
aS'http://www.imdb.com/title/tt3139310/'
p4053
aS'http://www.imdb.com/title/tt1785394/'
p4054
aS'http://www.imdb.com/title/tt0386741/'
p4055
aS'http://www.imdb.com/title/tt2642226/'
p4056
aS'http://www.imdb.com/title/tt4809396/'
p4057
aS'http://www.imdb.com/title/tt5062520/'
p4058
aS'http://www.imdb.com/title/tt1700841/'
p4059
aS'http://www.imdb.com/title/tt0222820/'
p4060
aS'http://www.imdb.com/title/tt0242599/'
p4061
aS'http://www.imdb.com/title/tt1278035/'
p4062
aS'http://www.imdb.com/title/tt0210381/'
p4063
aS'http://www.imdb.com/title/tt0086152/'
p4064
aS'http://www.imdb.com/title/tt0106417/'
p4065
aS'http://www.imdb.com/title/tt3203996/'
p4066
aS'http://www.imdb.com/title/tt1907648/'
p4067
aS'http://www.imdb.com/title/tt4135650/'
p4068
aS'http://www.imdb.com/title/tt4219304/'
p4069
aS'http://www.imdb.com/title/tt2630316/'
p4070
aS'http://www.imdb.com/title/tt3831888/'
p4071
aS'http://www.imdb.com/title/tt0829177/'
p4072
aS'http://www.imdb.com/title/tt0243136/'
p4073
aS'http://www.imdb.com/title/tt4926026/'
p4074
aS'http://www.imdb.com/title/tt0371606/'
p4075
aS'http://www.imdb.com/title/tt1825692/'
p4076
aS'http://www.imdb.com/title/tt0102928/'
p4077
aS'http://www.imdb.com/title/tt2094154/'
p4078
aS'http://www.imdb.com/title/tt0498396/'
p4079
aS'http://www.imdb.com/title/tt3732474/'
p4080
aS'http://www.imdb.com/title/tt2210479/'
p4081
aS'http://www.imdb.com/title/tt2836404/'
p4082
aS'http://www.imdb.com/title/tt1189082/'
p4083
aS'http://www.imdb.com/title/tt0237646/'
p4084
aS'http://www.imdb.com/title/tt0076593/'
p4085
aS'http://www.imdb.com/title/tt0134774/'
p4086
aS'http://www.imdb.com/title/tt0166948/'
p4087
aS'http://www.imdb.com/title/tt2408734/'
p4088
aS'http://www.imdb.com/title/tt3345138/'
p4089
aS'http://www.imdb.com/title/tt0808417/'
p4090
aS'http://www.imdb.com/title/tt3740416/'
p4091
aS'http://www.imdb.com/title/tt0138877/'
p4092
aS'http://www.imdb.com/title/tt3462802/'
p4093
aS'http://www.imdb.com/title/tt2898884/'
p4094
aS'http://www.imdb.com/title/tt0089877/'
p4095
aS'http://www.imdb.com/title/tt0146329/'
p4096
aS'http://www.imdb.com/title/tt2403476/'
p4097
aS'http://www.imdb.com/title/tt0067464/'
p4098
aS'http://www.imdb.com/title/tt0347318/'
p4099
aS'http://www.imdb.com/title/tt2263944/'
p4100
aS'http://www.imdb.com/title/tt0100194/'
p4101
aS'http://www.imdb.com/title/tt0181739/'
p4102
aS'http://www.imdb.com/title/tt2061702/'
p4103
aS'http://www.imdb.com/title/tt0356362/'
p4104
aS'http://www.imdb.com/title/tt0064107/'
p4105
aS'http://www.imdb.com/title/tt3189552/'
p4106
aS'http://www.imdb.com/title/tt3707390/'
p4107
aS'http://www.imdb.com/title/tt4885916/'
p4108
aS'http://www.imdb.com/title/tt1671584/'
p4109
aS'http://www.imdb.com/title/tt0115641/'
p4110
aS'http://www.imdb.com/title/tt4774922/'
p4111
aS'http://www.imdb.com/title/tt0308717/'
p4112
aS'http://www.imdb.com/title/tt0432283/'
p4113
aS'http://www.imdb.com/title/tt1585572/'
p4114
aS'http://www.imdb.com/title/tt1647446/'
p4115
aS'http://www.imdb.com/title/tt2162709/'
p4116
aS'http://www.imdb.com/title/tt0037834/'
p4117
aS'http://www.imdb.com/title/tt0270527/'
p4118
aS'http://www.imdb.com/title/tt1107365/'
p4119
aS'http://www.imdb.com/title/tt4266688/'
p4120
aS'http://www.imdb.com/title/tt0132204/'
p4121
aS'http://www.imdb.com/title/tt1858527/'
p4122
aS'http://www.imdb.com/title/tt1341194/'
p4123
aS'http://www.imdb.com/title/tt1690442/'
p4124
aS'http://www.imdb.com/title/tt0478787/'
p4125
aS'http://www.imdb.com/title/tt1744641/'
p4126
aS'http://www.imdb.com/title/tt0016351/'
p4127
aS'http://www.imdb.com/title/tt3095020/'
p4128
aS'http://www.imdb.com/title/tt0208997/'
p4129
aS'http://www.imdb.com/title/tt3646944/'
p4130
aS'http://www.imdb.com/title/tt4731008/'
p4131
aS'http://www.imdb.com/title/tt2435154/'
p4132
aS'http://www.imdb.com/title/tt0466198/'
p4133
aS'http://www.imdb.com/title/tt0116683/'
p4134
aS'http://www.imdb.com/title/tt0252095/'
p4135
aS'http://www.imdb.com/title/tt0073691/'
p4136
aS'http://www.imdb.com/title/tt2404027/'
p4137
aS'http://www.imdb.com/title/tt2504572/'
p4138
aS'http://www.imdb.com/title/tt0146290/'
p4139
aS'http://www.imdb.com/title/tt2312208/'
p4140
aS'http://www.imdb.com/title/tt3913856/'
p4141
aS'http://www.imdb.com/title/tt1454032/'
p4142
aS'http://www.imdb.com/title/tt2591814/'
p4143
aS'http://www.imdb.com/title/tt0145843/'
p4144
aS'http://www.imdb.com/title/tt0436710/'
p4145
aS'http://www.imdb.com/title/tt0119399/'
p4146
aS'http://www.imdb.com/title/tt0412677/'
p4147
aS'http://www.imdb.com/title/tt1893371/'
p4148
aS'http://www.imdb.com/title/tt0804905/'
p4149
aS'http://www.imdb.com/title/tt4768918/'
p4150
aS'http://www.imdb.com/title/tt0088814/'
p4151
aS'http://www.imdb.com/title/tt0101418/'
p4152
aS'http://www.imdb.com/title/tt0452821/'
p4153
aS'http://www.imdb.com/title/tt0109212/'
p4154
aS'http://www.imdb.com/title/tt0088334/'
p4155
aS'http://www.imdb.com/title/tt4075322/'
p4156
aS'http://www.imdb.com/title/tt2534642/'
p4157
aS'http://www.imdb.com/title/tt2441426/'
p4158
aS'http://www.imdb.com/title/tt1839567/'
p4159
aS'http://www.imdb.com/title/tt0155858/'
p4160
aS'http://www.imdb.com/title/tt4135300/'
p4161
aS'http://www.imdb.com/title/tt0212599/'
p4162
aS'http://www.imdb.com/title/tt4738752/'
p4163
aS'http://www.imdb.com/title/tt2736876/'
p4164
aS'http://www.imdb.com/title/tt1633171/'
p4165
aS'http://www.imdb.com/title/tt0985058/'
p4166
aS'http://www.imdb.com/title/tt1147508/'
p4167
aS'http://www.imdb.com/title/tt3528906/'
p4168
aS'http://www.imdb.com/title/tt0065544/'
p4169
aS'http://www.imdb.com/title/tt0212112/'
p4170
aS'http://www.imdb.com/title/tt1737726/'
p4171
aS'http://www.imdb.com/title/tt1032925/'
p4172
aS'http://www.imdb.com/title/tt0401559/'
p4173
aS'http://www.imdb.com/title/tt0168473/'
p4174
aS'http://www.imdb.com/title/tt1947964/'
p4175
aS'http://www.imdb.com/title/tt0472033/'
p4176
aS'http://www.imdb.com/title/tt3630388/'
p4177
aS'http://www.imdb.com/title/tt0498525/'
p4178
aS'http://www.imdb.com/title/tt0274919/'
p4179
aS'http://www.imdb.com/title/tt1519467/'
p4180
aS'http://www.imdb.com/title/tt0156505/'
p4181
aS'http://www.imdb.com/title/tt0254950/'
p4182
aS'http://www.imdb.com/title/tt3730256/'
p4183
aS'http://www.imdb.com/title/tt3745490/'
p4184
aS'http://www.imdb.com/title/tt0491980/'
p4185
aS'http://www.imdb.com/title/tt0095512/'
p4186
aS'http://www.imdb.com/title/tt2380716/'
p4187
aS'http://www.imdb.com/title/tt0135991/'
p4188
aS'http://www.imdb.com/title/tt2572014/'
p4189
aS'http://www.imdb.com/title/tt0390350/'
p4190
aS'http://www.imdb.com/title/tt0364084/'
p4191
aS'http://www.imdb.com/title/tt0039385/'
p4192
a.